	.file	"amath.c"
	.text
.Ltext0:
	.type	yyrefill, @function
yyrefill:
.LFB6:
	.file 1 "src/amath.leg"
	.loc 1 133 1
	.cfi_startproc
	endbr64
	pushq	%rbp
	.cfi_def_cfa_offset 16
	.cfi_offset 6, -16
	movq	%rsp, %rbp
	.cfi_def_cfa_register 6
	subq	$32, %rsp
1:	call	*mcount@GOTPCREL(%rip)
	movq	%rdi, -24(%rbp)
	.loc 1 135 9
	jmp	.L2
.L3:
	.loc 1 137 20
	movq	-24(%rbp), %rax
	movl	8(%rax), %eax
	leal	(%rax,%rax), %edx
	movq	-24(%rbp), %rax
	movl	%edx, 8(%rax)
	.loc 1 138 26
	movq	-24(%rbp), %rax
	movl	8(%rax), %eax
	movslq	%eax, %rdx
	movq	-24(%rbp), %rax
	movq	(%rax), %rax
	movq	%rdx, %rsi
	movq	%rax, %rdi
	call	realloc@PLT
	.loc 1 138 16
	movq	-24(%rbp), %rdx
	movq	%rax, (%rdx)
.L2:
	.loc 1 135 12
	movq	-24(%rbp), %rax
	movl	8(%rax), %edx
	.loc 1 135 27
	movq	-24(%rbp), %rax
	movl	12(%rax), %eax
	.loc 1 135 23
	subl	%eax, %edx
	movl	%edx, %eax
	.loc 1 135 9
	cmpl	$511, %eax
	jle	.L3
	.loc 1 141 3
	movq	-24(%rbp), %rax
	movq	96(%rax), %rax
	movq	(%rax), %rax
	testq	%rax, %rax
	je	.L4
	.loc 1 141 3 is_stmt 0 discriminator 1
	movq	-24(%rbp), %rax
	movq	96(%rax), %rax
	movq	(%rax), %rax
	movzbl	(%rax), %eax
	testb	%al, %al
	je	.L4
	.loc 1 141 3 discriminator 3
	movq	-24(%rbp), %rax
	movq	96(%rax), %rax
	movq	(%rax), %rax
	movq	-24(%rbp), %rdx
	movq	(%rdx), %rcx
	movq	-24(%rbp), %rdx
	movl	12(%rdx), %edx
	movslq	%edx, %rdx
	addq	%rcx, %rdx
	movzbl	(%rax), %eax
	movb	%al, (%rdx)
	movq	-24(%rbp), %rax
	movq	96(%rax), %rax
	movq	(%rax), %rdx
	addq	$1, %rdx
	movq	%rdx, (%rax)
	movl	$1, -4(%rbp)
	jmp	.L5
.L4:
	.loc 1 141 3 discriminator 4
	movl	$0, -4(%rbp)
.L5:
	.loc 1 145 6 is_stmt 1
	cmpl	$0, -4(%rbp)
	jne	.L6
	.loc 1 145 20 discriminator 1
	movl	$0, %eax
	jmp	.L7
.L6:
	.loc 1 146 15
	movq	-24(%rbp), %rax
	movl	16(%rax), %edx
	movl	-4(%rbp), %eax
	addl	%eax, %edx
	movq	-24(%rbp), %rax
	movl	%edx, 16(%rax)
	.loc 1 147 10
	movl	$1, %eax
.L7:
	.loc 1 148 1
	leave
	.cfi_def_cfa 7, 8
	ret
	.cfi_endproc
.LFE6:
	.size	yyrefill, .-yyrefill
	.type	yymatchDot, @function
yymatchDot:
.LFB7:
	.loc 1 151 1
	.cfi_startproc
	endbr64
	pushq	%rbp
	.cfi_def_cfa_offset 16
	.cfi_offset 6, -16
	movq	%rsp, %rbp
	.cfi_def_cfa_register 6
	subq	$16, %rsp
1:	call	*mcount@GOTPCREL(%rip)
	movq	%rdi, -8(%rbp)
	.loc 1 152 9
	movq	-8(%rbp), %rax
	movl	12(%rax), %edx
	.loc 1 152 22
	movq	-8(%rbp), %rax
	movl	16(%rax), %eax
	.loc 1 152 6
	cmpl	%eax, %edx
	jl	.L9
	.loc 1 152 36 discriminator 1
	movq	-8(%rbp), %rax
	movq	%rax, %rdi
	call	yyrefill
	.loc 1 152 32 discriminator 1
	testl	%eax, %eax
	jne	.L9
	.loc 1 152 57 discriminator 2
	movl	$0, %eax
	jmp	.L10
.L9:
	.loc 1 153 7
	movq	-8(%rbp), %rax
	movl	12(%rax), %eax
	.loc 1 153 3
	leal	1(%rax), %edx
	movq	-8(%rbp), %rax
	movl	%edx, 12(%rax)
	.loc 1 154 10
	movl	$1, %eax
.L10:
	.loc 1 155 1
	leave
	.cfi_def_cfa 7, 8
	ret
	.cfi_endproc
.LFE7:
	.size	yymatchDot, .-yymatchDot
	.type	yymatchChar, @function
yymatchChar:
.LFB8:
	.loc 1 158 1
	.cfi_startproc
	endbr64
	pushq	%rbp
	.cfi_def_cfa_offset 16
	.cfi_offset 6, -16
	movq	%rsp, %rbp
	.cfi_def_cfa_register 6
	subq	$16, %rsp
1:	call	*mcount@GOTPCREL(%rip)
	movq	%rdi, -8(%rbp)
	movl	%esi, -12(%rbp)
	.loc 1 159 9
	movq	-8(%rbp), %rax
	movl	12(%rax), %edx
	.loc 1 159 22
	movq	-8(%rbp), %rax
	movl	16(%rax), %eax
	.loc 1 159 6
	cmpl	%eax, %edx
	jl	.L12
	.loc 1 159 36 discriminator 1
	movq	-8(%rbp), %rax
	movq	%rax, %rdi
	call	yyrefill
	.loc 1 159 32 discriminator 1
	testl	%eax, %eax
	jne	.L12
	.loc 1 159 57 discriminator 2
	movl	$0, %eax
	jmp	.L13
.L12:
	.loc 1 160 24
	movq	-8(%rbp), %rax
	movq	(%rax), %rdx
	.loc 1 160 34
	movq	-8(%rbp), %rax
	movl	12(%rax), %eax
	cltq
	.loc 1 160 31
	addq	%rdx, %rax
	movzbl	(%rax), %eax
	.loc 1 160 7
	movzbl	%al, %eax
	.loc 1 160 6
	cmpl	%eax, -12(%rbp)
	jne	.L14
	.loc 1 162 11
	movq	-8(%rbp), %rax
	movl	12(%rax), %eax
	.loc 1 162 7
	leal	1(%rax), %edx
	movq	-8(%rbp), %rax
	movl	%edx, 12(%rax)
	.loc 1 164 14
	movl	$1, %eax
	jmp	.L13
.L14:
	.loc 1 167 10
	movl	$0, %eax
.L13:
	.loc 1 168 1
	leave
	.cfi_def_cfa 7, 8
	ret
	.cfi_endproc
.LFE8:
	.size	yymatchChar, .-yymatchChar
	.type	yymatchString, @function
yymatchString:
.LFB9:
	.loc 1 171 1
	.cfi_startproc
	endbr64
	pushq	%rbp
	.cfi_def_cfa_offset 16
	.cfi_offset 6, -16
	movq	%rsp, %rbp
	.cfi_def_cfa_register 6
	subq	$32, %rsp
1:	call	*mcount@GOTPCREL(%rip)
	movq	%rdi, -24(%rbp)
	movq	%rsi, -32(%rbp)
	.loc 1 172 7
	movq	-24(%rbp), %rax
	movl	12(%rax), %eax
	movl	%eax, -4(%rbp)
	.loc 1 173 9
	jmp	.L16
.L20:
	.loc 1 175 13
	movq	-24(%rbp), %rax
	movl	12(%rax), %edx
	.loc 1 175 26
	movq	-24(%rbp), %rax
	movl	16(%rax), %eax
	.loc 1 175 10
	cmpl	%eax, %edx
	jl	.L17
	.loc 1 175 40 discriminator 1
	movq	-24(%rbp), %rax
	movq	%rax, %rdi
	call	yyrefill
	.loc 1 175 36 discriminator 1
	testl	%eax, %eax
	jne	.L17
	.loc 1 175 61 discriminator 2
	movl	$0, %eax
	jmp	.L18
.L17:
	.loc 1 176 13
	movq	-24(%rbp), %rax
	movq	(%rax), %rdx
	.loc 1 176 23
	movq	-24(%rbp), %rax
	movl	12(%rax), %eax
	cltq
	.loc 1 176 20
	addq	%rdx, %rax
	movzbl	(%rax), %edx
	.loc 1 176 32
	movq	-32(%rbp), %rax
	movzbl	(%rax), %eax
	.loc 1 176 10
	cmpb	%al, %dl
	je	.L19
	.loc 1 178 20
	movq	-24(%rbp), %rax
	movl	-4(%rbp), %edx
	movl	%edx, 12(%rax)
	.loc 1 179 18
	movl	$0, %eax
	jmp	.L18
.L19:
	.loc 1 181 7
	addq	$1, -32(%rbp)
	.loc 1 182 11
	movq	-24(%rbp), %rax
	movl	12(%rax), %eax
	.loc 1 182 7
	leal	1(%rax), %edx
	movq	-24(%rbp), %rax
	movl	%edx, 12(%rax)
.L16:
	.loc 1 173 10
	movq	-32(%rbp), %rax
	movzbl	(%rax), %eax
	.loc 1 173 9
	testb	%al, %al
	jne	.L20
	.loc 1 184 10
	movl	$1, %eax
.L18:
	.loc 1 185 1
	leave
	.cfi_def_cfa 7, 8
	ret
	.cfi_endproc
.LFE9:
	.size	yymatchString, .-yymatchString
	.type	yymatchClass, @function
yymatchClass:
.LFB10:
	.loc 1 188 1
	.cfi_startproc
	endbr64
	pushq	%rbp
	.cfi_def_cfa_offset 16
	.cfi_offset 6, -16
	movq	%rsp, %rbp
	.cfi_def_cfa_register 6
	subq	$32, %rsp
1:	call	*mcount@GOTPCREL(%rip)
	movq	%rdi, -24(%rbp)
	movq	%rsi, -32(%rbp)
	.loc 1 190 9
	movq	-24(%rbp), %rax
	movl	12(%rax), %edx
	.loc 1 190 22
	movq	-24(%rbp), %rax
	movl	16(%rax), %eax
	.loc 1 190 6
	cmpl	%eax, %edx
	jl	.L22
	.loc 1 190 36 discriminator 1
	movq	-24(%rbp), %rax
	movq	%rax, %rdi
	call	yyrefill
	.loc 1 190 32 discriminator 1
	testl	%eax, %eax
	jne	.L22
	.loc 1 190 57 discriminator 2
	movl	$0, %eax
	jmp	.L23
.L22:
	.loc 1 191 23
	movq	-24(%rbp), %rax
	movq	(%rax), %rdx
	.loc 1 191 33
	movq	-24(%rbp), %rax
	movl	12(%rax), %eax
	cltq
	.loc 1 191 30
	addq	%rdx, %rax
	movzbl	(%rax), %eax
	.loc 1 191 4
	movzbl	%al, %eax
	movl	%eax, -4(%rbp)
	.loc 1 192 14
	movl	-4(%rbp), %eax
	sarl	$3, %eax
	movslq	%eax, %rdx
	.loc 1 192 11
	movq	-32(%rbp), %rax
	addq	%rdx, %rax
	movzbl	(%rax), %eax
	movzbl	%al, %edx
	.loc 1 192 31
	movl	-4(%rbp), %eax
	andl	$7, %eax
	.loc 1 192 7
	movl	%eax, %ecx
	sarl	%cl, %edx
	movl	%edx, %eax
	andl	$1, %eax
	.loc 1 192 6
	testl	%eax, %eax
	je	.L24
	.loc 1 194 11
	movq	-24(%rbp), %rax
	movl	12(%rax), %eax
	.loc 1 194 7
	leal	1(%rax), %edx
	movq	-24(%rbp), %rax
	movl	%edx, 12(%rax)
	.loc 1 196 14
	movl	$1, %eax
	jmp	.L23
.L24:
	.loc 1 199 10
	movl	$0, %eax
.L23:
	.loc 1 200 1
	leave
	.cfi_def_cfa 7, 8
	ret
	.cfi_endproc
.LFE10:
	.size	yymatchClass, .-yymatchClass
	.type	yyDo, @function
yyDo:
.LFB11:
	.loc 1 203 1
	.cfi_startproc
	endbr64
	pushq	%rbp
	.cfi_def_cfa_offset 16
	.cfi_offset 6, -16
	movq	%rsp, %rbp
	.cfi_def_cfa_register 6
	subq	$32, %rsp
1:	call	*mcount@GOTPCREL(%rip)
	movq	%rdi, -8(%rbp)
	movq	%rsi, -16(%rbp)
	movl	%edx, -20(%rbp)
	movl	%ecx, -24(%rbp)
	.loc 1 204 9
	jmp	.L26
.L27:
	.loc 1 206 23
	movq	-8(%rbp), %rax
	movl	56(%rax), %eax
	leal	(%rax,%rax), %edx
	movq	-8(%rbp), %rax
	movl	%edx, 56(%rax)
	.loc 1 207 32
	movq	-8(%rbp), %rax
	movl	56(%rax), %eax
	movslq	%eax, %rdx
	movq	%rdx, %rax
	addq	%rax, %rax
	addq	%rdx, %rax
	salq	$3, %rax
	movq	%rax, %rdx
	movq	-8(%rbp), %rax
	movq	48(%rax), %rax
	movq	%rdx, %rsi
	movq	%rax, %rdi
	call	realloc@PLT
	.loc 1 207 19
	movq	-8(%rbp), %rdx
	movq	%rax, 48(%rdx)
.L26:
	.loc 1 204 12
	movq	-8(%rbp), %rax
	movl	60(%rax), %edx
	.loc 1 204 30
	movq	-8(%rbp), %rax
	movl	56(%rax), %eax
	.loc 1 204 9
	cmpl	%eax, %edx
	jge	.L27
	.loc 1 209 5
	movq	-8(%rbp), %rax
	movq	48(%rax), %rcx
	.loc 1 209 18
	movq	-8(%rbp), %rax
	movl	60(%rax), %eax
	movslq	%eax, %rdx
	.loc 1 209 15
	movq	%rdx, %rax
	addq	%rax, %rax
	addq	%rdx, %rax
	salq	$3, %rax
	leaq	(%rcx,%rax), %rdx
	.loc 1 209 37
	movl	-20(%rbp), %eax
	movl	%eax, (%rdx)
	.loc 1 210 5
	movq	-8(%rbp), %rax
	movq	48(%rax), %rcx
	.loc 1 210 18
	movq	-8(%rbp), %rax
	movl	60(%rax), %eax
	movslq	%eax, %rdx
	.loc 1 210 15
	movq	%rdx, %rax
	addq	%rax, %rax
	addq	%rdx, %rax
	salq	$3, %rax
	leaq	(%rcx,%rax), %rdx
	.loc 1 210 35
	movl	-24(%rbp), %eax
	movl	%eax, 4(%rdx)
	.loc 1 211 5
	movq	-8(%rbp), %rax
	movq	48(%rax), %rcx
	.loc 1 211 18
	movq	-8(%rbp), %rax
	movl	60(%rax), %eax
	movslq	%eax, %rdx
	.loc 1 211 15
	movq	%rdx, %rax
	addq	%rax, %rax
	addq	%rdx, %rax
	salq	$3, %rax
	leaq	(%rcx,%rax), %rdx
	.loc 1 211 38
	movq	-16(%rbp), %rax
	movq	%rax, 8(%rdx)
	.loc 1 212 7
	movq	-8(%rbp), %rax
	movl	60(%rax), %eax
	.loc 1 212 3
	leal	1(%rax), %edx
	movq	-8(%rbp), %rax
	movl	%edx, 60(%rax)
	.loc 1 213 1
	nop
	leave
	.cfi_def_cfa 7, 8
	ret
	.cfi_endproc
.LFE11:
	.size	yyDo, .-yyDo
	.type	yyText, @function
yyText:
.LFB12:
	.loc 1 216 1
	.cfi_startproc
	endbr64
	pushq	%rbp
	.cfi_def_cfa_offset 16
	.cfi_offset 6, -16
	movq	%rsp, %rbp
	.cfi_def_cfa_register 6
	subq	$32, %rsp
1:	call	*mcount@GOTPCREL(%rip)
	movq	%rdi, -24(%rbp)
	movl	%esi, -28(%rbp)
	movl	%edx, -32(%rbp)
	.loc 1 217 7
	movl	-32(%rbp), %eax
	subl	-28(%rbp), %eax
	movl	%eax, -4(%rbp)
	.loc 1 218 6
	cmpl	$0, -4(%rbp)
	jg	.L31
	.loc 1 219 11
	movl	$0, -4(%rbp)
	jmp	.L30
.L32:
	.loc 1 224 18
	movq	-24(%rbp), %rax
	movl	32(%rax), %eax
	leal	(%rax,%rax), %edx
	movq	-24(%rbp), %rax
	movl	%edx, 32(%rax)
	.loc 1 225 24
	movq	-24(%rbp), %rax
	movl	32(%rax), %eax
	movslq	%eax, %rdx
	movq	-24(%rbp), %rax
	movq	24(%rax), %rax
	movq	%rdx, %rsi
	movq	%rax, %rdi
	call	realloc@PLT
	.loc 1 225 14
	movq	-24(%rbp), %rdx
	movq	%rax, 24(%rdx)
.L31:
	.loc 1 222 16
	movq	-24(%rbp), %rax
	movl	32(%rax), %eax
	.loc 1 222 13
	cmpl	%eax, -4(%rbp)
	jge	.L32
	.loc 1 227 7
	movl	-4(%rbp), %eax
	movslq	%eax, %rdx
	.loc 1 227 28
	movq	-24(%rbp), %rax
	movq	(%rax), %rcx
	.loc 1 227 7
	movl	-28(%rbp), %eax
	cltq
	.loc 1 227 36
	addq	%rax, %rcx
	.loc 1 227 16
	movq	-24(%rbp), %rax
	movq	24(%rax), %rax
	.loc 1 227 7
	movq	%rcx, %rsi
	movq	%rax, %rdi
	call	memcpy@PLT
.L30:
	.loc 1 229 5
	movq	-24(%rbp), %rax
	movq	24(%rax), %rdx
	.loc 1 229 13
	movl	-4(%rbp), %eax
	cltq
	addq	%rdx, %rax
	.loc 1 229 21
	movb	$0, (%rax)
	.loc 1 230 10
	movl	-4(%rbp), %eax
	.loc 1 231 1
	leave
	.cfi_def_cfa 7, 8
	ret
	.cfi_endproc
.LFE12:
	.size	yyText, .-yyText
	.type	yyDone, @function
yyDone:
.LFB13:
	.loc 1 234 1
	.cfi_startproc
	endbr64
	pushq	%rbp
	.cfi_def_cfa_offset 16
	.cfi_offset 6, -16
	movq	%rsp, %rbp
	.cfi_def_cfa_register 6
	subq	$32, %rsp
1:	call	*mcount@GOTPCREL(%rip)
	movq	%rdi, -24(%rbp)
	.loc 1 236 11
	movl	$0, -16(%rbp)
	.loc 1 236 3
	jmp	.L35
.L38:
.LBB2:
	.loc 1 238 26
	movq	-24(%rbp), %rax
	movq	48(%rax), %rcx
	.loc 1 238 36
	movl	-16(%rbp), %eax
	movslq	%eax, %rdx
	movq	%rdx, %rax
	addq	%rax, %rax
	addq	%rdx, %rax
	salq	$3, %rax
	.loc 1 238 16
	addq	%rcx, %rax
	movq	%rax, -8(%rbp)
	.loc 1 239 24
	movq	-8(%rbp), %rax
	movl	4(%rax), %eax
	.loc 1 239 69
	testl	%eax, %eax
	je	.L36
	.loc 1 239 32 discriminator 1
	movq	-8(%rbp), %rax
	movl	4(%rax), %edx
	movq	-8(%rbp), %rax
	movl	(%rax), %ecx
	movq	-24(%rbp), %rax
	movl	%ecx, %esi
	movq	%rax, %rdi
	call	yyText
	jmp	.L37
.L36:
	.loc 1 239 69 discriminator 2
	movq	-8(%rbp), %rax
	movl	(%rax), %eax
.L37:
	.loc 1 239 11 discriminator 4
	movl	%eax, -12(%rbp)
	.loc 1 241 12 discriminator 4
	movq	-8(%rbp), %rax
	movq	8(%rax), %r8
	.loc 1 241 7 discriminator 4
	movq	-24(%rbp), %rax
	movq	24(%rax), %rcx
	movl	-12(%rbp), %edx
	movq	-24(%rbp), %rax
	movq	%rcx, %rsi
	movq	%rax, %rdi
	call	*%r8
.LVL0:
.LBE2:
	.loc 1 236 40 discriminator 4
	addl	$1, -16(%rbp)
.L35:
	.loc 1 236 25 discriminator 2
	movq	-24(%rbp), %rax
	movl	60(%rax), %eax
	.loc 1 236 3 discriminator 2
	cmpl	%eax, -16(%rbp)
	jl	.L38
	.loc 1 243 17
	movq	-24(%rbp), %rax
	movl	$0, 60(%rax)
	.loc 1 244 1
	nop
	leave
	.cfi_def_cfa 7, 8
	ret
	.cfi_endproc
.LFE13:
	.size	yyDone, .-yyDone
	.type	yyCommit, @function
yyCommit:
.LFB14:
	.loc 1 247 1
	.cfi_startproc
	endbr64
	pushq	%rbp
	.cfi_def_cfa_offset 16
	.cfi_offset 6, -16
	movq	%rsp, %rbp
	.cfi_def_cfa_register 6
	subq	$16, %rsp
1:	call	*mcount@GOTPCREL(%rip)
	movq	%rdi, -8(%rbp)
	.loc 1 248 20
	movq	-8(%rbp), %rax
	movl	16(%rax), %edx
	.loc 1 248 25
	movq	-8(%rbp), %rax
	movl	12(%rax), %eax
	.loc 1 248 20
	subl	%eax, %edx
	movq	-8(%rbp), %rax
	movl	%edx, 16(%rax)
	movq	-8(%rbp), %rax
	movl	16(%rax), %eax
	.loc 1 248 6
	testl	%eax, %eax
	je	.L40
	.loc 1 250 51
	movq	-8(%rbp), %rax
	movl	16(%rax), %eax
	.loc 1 250 7
	movslq	%eax, %rdx
	.loc 1 250 28
	movq	-8(%rbp), %rax
	movq	(%rax), %rcx
	.loc 1 250 40
	movq	-8(%rbp), %rax
	movl	12(%rax), %eax
	cltq
	.loc 1 250 36
	addq	%rax, %rcx
	.loc 1 250 17
	movq	-8(%rbp), %rax
	movq	(%rax), %rax
	.loc 1 250 7
	movq	%rcx, %rsi
	movq	%rax, %rdi
	call	memmove@PLT
.L40:
	.loc 1 252 15
	movq	-8(%rbp), %rax
	movl	36(%rax), %edx
	.loc 1 252 20
	movq	-8(%rbp), %rax
	movl	12(%rax), %eax
	.loc 1 252 15
	subl	%eax, %edx
	movq	-8(%rbp), %rax
	movl	%edx, 36(%rax)
	.loc 1 253 13
	movq	-8(%rbp), %rax
	movl	40(%rax), %edx
	.loc 1 253 18
	movq	-8(%rbp), %rax
	movl	12(%rax), %eax
	.loc 1 253 13
	subl	%eax, %edx
	movq	-8(%rbp), %rax
	movl	%edx, 40(%rax)
	.loc 1 254 28
	movq	-8(%rbp), %rax
	movl	$0, 60(%rax)
	.loc 1 254 16
	movq	-8(%rbp), %rax
	movl	60(%rax), %edx
	.loc 1 254 12
	movq	-8(%rbp), %rax
	movl	%edx, 12(%rax)
	.loc 1 255 1
	nop
	leave
	.cfi_def_cfa 7, 8
	ret
	.cfi_endproc
.LFE14:
	.size	yyCommit, .-yyCommit
	.section	.rodata
.LC0:
	.string	"accept denied at %d\n"
	.text
	.type	yyAccept, @function
yyAccept:
.LFB15:
	.loc 1 258 1
	.cfi_startproc
	endbr64
	pushq	%rbp
	.cfi_def_cfa_offset 16
	.cfi_offset 6, -16
	movq	%rsp, %rbp
	.cfi_def_cfa_register 6
	subq	$16, %rsp
1:	call	*mcount@GOTPCREL(%rip)
	movq	%rdi, -8(%rbp)
	movl	%esi, -12(%rbp)
	.loc 1 259 6
	cmpl	$0, -12(%rbp)
	je	.L42
	.loc 1 261 7
	movq	stderr(%rip), %rax
	movl	-12(%rbp), %edx
	leaq	.LC0(%rip), %rsi
	movq	%rax, %rdi
	movl	$0, %eax
	call	fprintf@PLT
	.loc 1 262 14
	movl	$0, %eax
	jmp	.L43
.L42:
	.loc 1 266 7
	movq	-8(%rbp), %rax
	movq	%rax, %rdi
	call	yyDone
	.loc 1 267 7
	movq	-8(%rbp), %rax
	movq	%rax, %rdi
	call	yyCommit
	.loc 1 269 10
	movl	$1, %eax
.L43:
	.loc 1 270 1
	leave
	.cfi_def_cfa 7, 8
	ret
	.cfi_endproc
.LFE15:
	.size	yyAccept, .-yyAccept
	.type	yyPush, @function
yyPush:
.LFB16:
	.loc 1 273 1
	.cfi_startproc
	endbr64
	pushq	%rbp
	.cfi_def_cfa_offset 16
	.cfi_offset 6, -16
	movq	%rsp, %rbp
	.cfi_def_cfa_register 6
	subq	$48, %rsp
1:	call	*mcount@GOTPCREL(%rip)
	movq	%rdi, -24(%rbp)
	movq	%rsi, -32(%rbp)
	movl	%edx, -36(%rbp)
	.loc 1 274 13
	movq	-24(%rbp), %rax
	movq	72(%rax), %rax
	movl	-36(%rbp), %edx
	movslq	%edx, %rdx
	salq	$3, %rdx
	addq	%rax, %rdx
	movq	-24(%rbp), %rax
	movq	%rdx, 72(%rax)
	.loc 1 275 9
	jmp	.L45
.L46:
.LBB3:
	.loc 1 277 22
	movq	-24(%rbp), %rax
	movq	72(%rax), %rdx
	.loc 1 277 34
	movq	-24(%rbp), %rax
	movq	80(%rax), %rax
	.loc 1 277 30
	subq	%rax, %rdx
	movq	%rdx, %rax
	.loc 1 277 12
	sarq	$3, %rax
	movq	%rax, -8(%rbp)
	.loc 1 278 21
	movq	-24(%rbp), %rax
	movl	88(%rax), %eax
	leal	(%rax,%rax), %edx
	movq	-24(%rbp), %rax
	movl	%edx, 88(%rax)
	.loc 1 279 30
	movq	-24(%rbp), %rax
	movl	88(%rax), %eax
	cltq
	leaq	0(,%rax,8), %rdx
	movq	-24(%rbp), %rax
	movq	80(%rax), %rax
	movq	%rdx, %rsi
	movq	%rax, %rdi
	call	realloc@PLT
	.loc 1 279 17
	movq	-24(%rbp), %rdx
	movq	%rax, 80(%rdx)
	.loc 1 280 20
	movq	-24(%rbp), %rax
	movq	80(%rax), %rax
	.loc 1 280 29
	movq	-8(%rbp), %rdx
	salq	$3, %rdx
	addq	%rax, %rdx
	.loc 1 280 16
	movq	-24(%rbp), %rax
	movq	%rdx, 72(%rax)
.L45:
.LBE3:
	.loc 1 275 12
	movq	-24(%rbp), %rax
	movl	88(%rax), %eax
	movslq	%eax, %rdx
	.loc 1 275 29
	movq	-24(%rbp), %rax
	movq	72(%rax), %rcx
	.loc 1 275 41
	movq	-24(%rbp), %rax
	movq	80(%rax), %rax
	.loc 1 275 37
	subq	%rax, %rcx
	movq	%rcx, %rax
	sarq	$3, %rax
	.loc 1 275 9
	cmpq	%rax, %rdx
	jle	.L46
	.loc 1 282 1
	nop
	nop
	leave
	.cfi_def_cfa 7, 8
	ret
	.cfi_endproc
.LFE16:
	.size	yyPush, .-yyPush
	.type	yyPop, @function
yyPop:
.LFB17:
	.loc 1 283 62
	.cfi_startproc
	endbr64
	pushq	%rbp
	.cfi_def_cfa_offset 16
	.cfi_offset 6, -16
	movq	%rsp, %rbp
	.cfi_def_cfa_register 6
	subq	$24, %rsp
1:	call	*mcount@GOTPCREL(%rip)
	movq	%rdi, -8(%rbp)
	movq	%rsi, -16(%rbp)
	movl	%edx, -20(%rbp)
	.loc 1 283 74
	movq	-8(%rbp), %rax
	movq	72(%rax), %rax
	movl	-20(%rbp), %edx
	movslq	%edx, %rdx
	salq	$3, %rdx
	negq	%rdx
	addq	%rax, %rdx
	movq	-8(%rbp), %rax
	movq	%rdx, 72(%rax)
	.loc 1 283 84
	nop
	leave
	.cfi_def_cfa 7, 8
	ret
	.cfi_endproc
.LFE17:
	.size	yyPop, .-yyPop
	.type	yySet, @function
yySet:
.LFB18:
	.loc 1 284 62
	.cfi_startproc
	endbr64
	pushq	%rbp
	.cfi_def_cfa_offset 16
	.cfi_offset 6, -16
	movq	%rsp, %rbp
	.cfi_def_cfa_register 6
	subq	$24, %rsp
1:	call	*mcount@GOTPCREL(%rip)
	movq	%rdi, -8(%rbp)
	movq	%rsi, -16(%rbp)
	movl	%edx, -20(%rbp)
	.loc 1 284 66
	movq	-8(%rbp), %rax
	movq	72(%rax), %rax
	.loc 1 284 73
	movl	-20(%rbp), %edx
	movslq	%edx, %rdx
	salq	$3, %rdx
	addq	%rax, %rdx
	.loc 1 284 84
	movq	-8(%rbp), %rax
	movq	64(%rax), %rax
	.loc 1 284 80
	movq	%rax, (%rdx)
	.loc 1 284 90
	nop
	leave
	.cfi_def_cfa 7, 8
	ret
	.cfi_endproc
.LFE18:
	.size	yySet, .-yySet
	.section	.rodata
.LC1:
	.string	"\342\210\252"
	.text
	.type	yy_123_Op, @function
yy_123_Op:
.LFB19:
	.loc 1 314 1
	.cfi_startproc
	endbr64
	pushq	%rbp
	.cfi_def_cfa_offset 16
	.cfi_offset 6, -16
	movq	%rsp, %rbp
	.cfi_def_cfa_register 6
	subq	$32, %rsp
1:	call	*mcount@GOTPCREL(%rip)
	movq	%rdi, -8(%rbp)
	movq	%rsi, -16(%rbp)
	movl	%edx, -20(%rbp)
	.loc 1 317 9
	leaq	.LC1(%rip), %rdi
	call	mk_op@PLT
	.loc 1 317 7
	movq	-8(%rbp), %rdx
	movq	%rax, 64(%rdx)
	.loc 1 322 1
	nop
	leave
	.cfi_def_cfa 7, 8
	ret
	.cfi_endproc
.LFE19:
	.size	yy_123_Op, .-yy_123_Op
	.section	.rodata
.LC2:
	.string	"\342\210\251"
	.text
	.type	yy_122_Op, @function
yy_122_Op:
.LFB20:
	.loc 1 324 1
	.cfi_startproc
	endbr64
	pushq	%rbp
	.cfi_def_cfa_offset 16
	.cfi_offset 6, -16
	movq	%rsp, %rbp
	.cfi_def_cfa_register 6
	subq	$32, %rsp
1:	call	*mcount@GOTPCREL(%rip)
	movq	%rdi, -8(%rbp)
	movq	%rsi, -16(%rbp)
	movl	%edx, -20(%rbp)
	.loc 1 316 9
	leaq	.LC2(%rip), %rdi
	call	mk_op@PLT
	.loc 1 316 7
	movq	-8(%rbp), %rdx
	movq	%rax, 64(%rdx)
	.loc 1 321 1
	nop
	leave
	.cfi_def_cfa 7, 8
	ret
	.cfi_endproc
.LFE20:
	.size	yy_122_Op, .-yy_122_Op
	.section	.rodata
.LC3:
	.string	"\342\210\250"
	.text
	.type	yy_121_Op, @function
yy_121_Op:
.LFB21:
	.loc 1 323 1
	.cfi_startproc
	endbr64
	pushq	%rbp
	.cfi_def_cfa_offset 16
	.cfi_offset 6, -16
	movq	%rsp, %rbp
	.cfi_def_cfa_register 6
	subq	$32, %rsp
1:	call	*mcount@GOTPCREL(%rip)
	movq	%rdi, -8(%rbp)
	movq	%rsi, -16(%rbp)
	movl	%edx, -20(%rbp)
	.loc 1 315 9
	leaq	.LC3(%rip), %rdi
	call	mk_op@PLT
	.loc 1 315 7
	movq	-8(%rbp), %rdx
	movq	%rax, 64(%rdx)
	.loc 1 320 1
	nop
	leave
	.cfi_def_cfa 7, 8
	ret
	.cfi_endproc
.LFE21:
	.size	yy_121_Op, .-yy_121_Op
	.section	.rodata
.LC4:
	.string	"\342\210\247"
	.text
	.type	yy_120_Op, @function
yy_120_Op:
.LFB22:
	.loc 1 322 1
	.cfi_startproc
	endbr64
	pushq	%rbp
	.cfi_def_cfa_offset 16
	.cfi_offset 6, -16
	movq	%rsp, %rbp
	.cfi_def_cfa_register 6
	subq	$32, %rsp
1:	call	*mcount@GOTPCREL(%rip)
	movq	%rdi, -8(%rbp)
	movq	%rsi, -16(%rbp)
	movl	%edx, -20(%rbp)
	.loc 1 314 9
	leaq	.LC4(%rip), %rdi
	call	mk_op@PLT
	.loc 1 314 7
	movq	-8(%rbp), %rdx
	movq	%rax, 64(%rdx)
	.loc 1 319 1
	nop
	leave
	.cfi_def_cfa 7, 8
	ret
	.cfi_endproc
.LFE22:
	.size	yy_120_Op, .-yy_120_Op
	.section	.rodata
.LC5:
	.string	"\342\212\231"
	.text
	.type	yy_119_Op, @function
yy_119_Op:
.LFB23:
	.loc 1 321 1
	.cfi_startproc
	endbr64
	pushq	%rbp
	.cfi_def_cfa_offset 16
	.cfi_offset 6, -16
	movq	%rsp, %rbp
	.cfi_def_cfa_register 6
	subq	$32, %rsp
1:	call	*mcount@GOTPCREL(%rip)
	movq	%rdi, -8(%rbp)
	movq	%rsi, -16(%rbp)
	movl	%edx, -20(%rbp)
	.loc 1 313 9
	leaq	.LC5(%rip), %rdi
	call	mk_op@PLT
	.loc 1 313 7
	movq	-8(%rbp), %rdx
	movq	%rax, 64(%rdx)
	.loc 1 318 1
	nop
	leave
	.cfi_def_cfa 7, 8
	ret
	.cfi_endproc
.LFE23:
	.size	yy_119_Op, .-yy_119_Op
	.section	.rodata
.LC6:
	.string	"\342\212\227"
	.text
	.type	yy_118_Op, @function
yy_118_Op:
.LFB24:
	.loc 1 320 1
	.cfi_startproc
	endbr64
	pushq	%rbp
	.cfi_def_cfa_offset 16
	.cfi_offset 6, -16
	movq	%rsp, %rbp
	.cfi_def_cfa_register 6
	subq	$32, %rsp
1:	call	*mcount@GOTPCREL(%rip)
	movq	%rdi, -8(%rbp)
	movq	%rsi, -16(%rbp)
	movl	%edx, -20(%rbp)
	.loc 1 312 9
	leaq	.LC6(%rip), %rdi
	call	mk_op@PLT
	.loc 1 312 7
	movq	-8(%rbp), %rdx
	movq	%rax, 64(%rdx)
	.loc 1 317 1
	nop
	leave
	.cfi_def_cfa 7, 8
	ret
	.cfi_endproc
.LFE24:
	.size	yy_118_Op, .-yy_118_Op
	.section	.rodata
.LC7:
	.string	"\342\212\225"
	.text
	.type	yy_117_Op, @function
yy_117_Op:
.LFB25:
	.loc 1 319 1
	.cfi_startproc
	endbr64
	pushq	%rbp
	.cfi_def_cfa_offset 16
	.cfi_offset 6, -16
	movq	%rsp, %rbp
	.cfi_def_cfa_register 6
	subq	$32, %rsp
1:	call	*mcount@GOTPCREL(%rip)
	movq	%rdi, -8(%rbp)
	movq	%rsi, -16(%rbp)
	movl	%edx, -20(%rbp)
	.loc 1 311 9
	leaq	.LC7(%rip), %rdi
	call	mk_op@PLT
	.loc 1 311 7
	movq	-8(%rbp), %rdx
	movq	%rax, 64(%rdx)
	.loc 1 316 1
	nop
	leave
	.cfi_def_cfa 7, 8
	ret
	.cfi_endproc
.LFE25:
	.size	yy_117_Op, .-yy_117_Op
	.section	.rodata
.LC8:
	.string	"\342\210\230"
	.text
	.type	yy_116_Op, @function
yy_116_Op:
.LFB26:
	.loc 1 318 1
	.cfi_startproc
	endbr64
	pushq	%rbp
	.cfi_def_cfa_offset 16
	.cfi_offset 6, -16
	movq	%rsp, %rbp
	.cfi_def_cfa_register 6
	subq	$32, %rsp
1:	call	*mcount@GOTPCREL(%rip)
	movq	%rdi, -8(%rbp)
	movq	%rsi, -16(%rbp)
	movl	%edx, -20(%rbp)
	.loc 1 310 9
	leaq	.LC8(%rip), %rdi
	call	mk_op@PLT
	.loc 1 310 7
	movq	-8(%rbp), %rdx
	movq	%rax, 64(%rdx)
	.loc 1 315 1
	nop
	leave
	.cfi_def_cfa 7, 8
	ret
	.cfi_endproc
.LFE26:
	.size	yy_116_Op, .-yy_116_Op
	.section	.rodata
.LC9:
	.string	"\303\227"
	.text
	.type	yy_115_Op, @function
yy_115_Op:
.LFB27:
	.loc 1 317 1
	.cfi_startproc
	endbr64
	pushq	%rbp
	.cfi_def_cfa_offset 16
	.cfi_offset 6, -16
	movq	%rsp, %rbp
	.cfi_def_cfa_register 6
	subq	$32, %rsp
1:	call	*mcount@GOTPCREL(%rip)
	movq	%rdi, -8(%rbp)
	movq	%rsi, -16(%rbp)
	movl	%edx, -20(%rbp)
	.loc 1 309 9
	leaq	.LC9(%rip), %rdi
	call	mk_op@PLT
	.loc 1 309 7
	movq	-8(%rbp), %rdx
	movq	%rax, 64(%rdx)
	.loc 1 314 1
	nop
	leave
	.cfi_def_cfa 7, 8
	ret
	.cfi_endproc
.LFE27:
	.size	yy_115_Op, .-yy_115_Op
	.section	.rodata
.LC10:
	.string	"\342\213\211"
	.text
	.type	yy_114_Op, @function
yy_114_Op:
.LFB28:
	.loc 1 316 1
	.cfi_startproc
	endbr64
	pushq	%rbp
	.cfi_def_cfa_offset 16
	.cfi_offset 6, -16
	movq	%rsp, %rbp
	.cfi_def_cfa_register 6
	subq	$32, %rsp
1:	call	*mcount@GOTPCREL(%rip)
	movq	%rdi, -8(%rbp)
	movq	%rsi, -16(%rbp)
	movl	%edx, -20(%rbp)
	.loc 1 308 9
	leaq	.LC10(%rip), %rdi
	call	mk_op@PLT
	.loc 1 308 7
	movq	-8(%rbp), %rdx
	movq	%rax, 64(%rdx)
	.loc 1 313 1
	nop
	leave
	.cfi_def_cfa 7, 8
	ret
	.cfi_endproc
.LFE28:
	.size	yy_114_Op, .-yy_114_Op
	.section	.rodata
.LC11:
	.string	"\342\213\210"
	.text
	.type	yy_113_Op, @function
yy_113_Op:
.LFB29:
	.loc 1 315 1
	.cfi_startproc
	endbr64
	pushq	%rbp
	.cfi_def_cfa_offset 16
	.cfi_offset 6, -16
	movq	%rsp, %rbp
	.cfi_def_cfa_register 6
	subq	$32, %rsp
1:	call	*mcount@GOTPCREL(%rip)
	movq	%rdi, -8(%rbp)
	movq	%rsi, -16(%rbp)
	movl	%edx, -20(%rbp)
	.loc 1 307 9
	leaq	.LC11(%rip), %rdi
	call	mk_op@PLT
	.loc 1 307 7
	movq	-8(%rbp), %rdx
	movq	%rax, 64(%rdx)
	.loc 1 312 1
	nop
	leave
	.cfi_def_cfa 7, 8
	ret
	.cfi_endproc
.LFE29:
	.size	yy_113_Op, .-yy_113_Op
	.section	.rodata
.LC12:
	.string	""
	.text
	.type	yy_112_Op, @function
yy_112_Op:
.LFB30:
	.loc 1 314 1
	.cfi_startproc
	endbr64
	pushq	%rbp
	.cfi_def_cfa_offset 16
	.cfi_offset 6, -16
	movq	%rsp, %rbp
	.cfi_def_cfa_register 6
	subq	$32, %rsp
1:	call	*mcount@GOTPCREL(%rip)
	movq	%rdi, -8(%rbp)
	movq	%rsi, -16(%rbp)
	movl	%edx, -20(%rbp)
	.loc 1 306 9
	leaq	.LC12(%rip), %rdi
	call	mk_str@PLT
	.loc 1 306 7
	movq	-8(%rbp), %rdx
	movq	%rax, 64(%rdx)
	.loc 1 311 1
	nop
	leave
	.cfi_def_cfa 7, 8
	ret
	.cfi_endproc
.LFE30:
	.size	yy_112_Op, .-yy_112_Op
	.section	.rodata
.LC13:
	.string	"\\"
	.text
	.type	yy_111_Op, @function
yy_111_Op:
.LFB31:
	.loc 1 313 1
	.cfi_startproc
	endbr64
	pushq	%rbp
	.cfi_def_cfa_offset 16
	.cfi_offset 6, -16
	movq	%rsp, %rbp
	.cfi_def_cfa_register 6
	subq	$32, %rsp
1:	call	*mcount@GOTPCREL(%rip)
	movq	%rdi, -8(%rbp)
	movq	%rsi, -16(%rbp)
	movl	%edx, -20(%rbp)
	.loc 1 305 9
	leaq	.LC13(%rip), %rdi
	call	mk_op@PLT
	.loc 1 305 7
	movq	-8(%rbp), %rdx
	movq	%rax, 64(%rdx)
	.loc 1 310 1
	nop
	leave
	.cfi_def_cfa 7, 8
	ret
	.cfi_endproc
.LFE31:
	.size	yy_111_Op, .-yy_111_Op
	.section	.rodata
.LC14:
	.string	"/"
	.text
	.type	yy_110_Op, @function
yy_110_Op:
.LFB32:
	.loc 1 312 1
	.cfi_startproc
	endbr64
	pushq	%rbp
	.cfi_def_cfa_offset 16
	.cfi_offset 6, -16
	movq	%rsp, %rbp
	.cfi_def_cfa_register 6
	subq	$32, %rsp
1:	call	*mcount@GOTPCREL(%rip)
	movq	%rdi, -8(%rbp)
	movq	%rsi, -16(%rbp)
	movl	%edx, -20(%rbp)
	.loc 1 304 9
	leaq	.LC14(%rip), %rdi
	call	mk_op@PLT
	.loc 1 304 7
	movq	-8(%rbp), %rdx
	movq	%rax, 64(%rdx)
	.loc 1 309 1
	nop
	leave
	.cfi_def_cfa 7, 8
	ret
	.cfi_endproc
.LFE32:
	.size	yy_110_Op, .-yy_110_Op
	.section	.rodata
.LC15:
	.string	"\342\213\205"
	.text
	.type	yy_109_Op, @function
yy_109_Op:
.LFB33:
	.loc 1 311 1
	.cfi_startproc
	endbr64
	pushq	%rbp
	.cfi_def_cfa_offset 16
	.cfi_offset 6, -16
	movq	%rsp, %rbp
	.cfi_def_cfa_register 6
	subq	$32, %rsp
1:	call	*mcount@GOTPCREL(%rip)
	movq	%rdi, -8(%rbp)
	movq	%rsi, -16(%rbp)
	movl	%edx, -20(%rbp)
	.loc 1 303 9
	leaq	.LC15(%rip), %rdi
	call	mk_op@PLT
	.loc 1 303 7
	movq	-8(%rbp), %rdx
	movq	%rax, 64(%rdx)
	.loc 1 308 1
	nop
	leave
	.cfi_def_cfa 7, 8
	ret
	.cfi_endproc
.LFE33:
	.size	yy_109_Op, .-yy_109_Op
	.section	.rodata
.LC16:
	.string	"\342\210\227"
	.text
	.type	yy_108_Op, @function
yy_108_Op:
.LFB34:
	.loc 1 310 1
	.cfi_startproc
	endbr64
	pushq	%rbp
	.cfi_def_cfa_offset 16
	.cfi_offset 6, -16
	movq	%rsp, %rbp
	.cfi_def_cfa_register 6
	subq	$32, %rsp
1:	call	*mcount@GOTPCREL(%rip)
	movq	%rdi, -8(%rbp)
	movq	%rsi, -16(%rbp)
	movl	%edx, -20(%rbp)
	.loc 1 302 9
	leaq	.LC16(%rip), %rdi
	call	mk_op@PLT
	.loc 1 302 7
	movq	-8(%rbp), %rdx
	movq	%rax, 64(%rdx)
	.loc 1 307 1
	nop
	leave
	.cfi_def_cfa 7, 8
	ret
	.cfi_endproc
.LFE34:
	.size	yy_108_Op, .-yy_108_Op
	.section	.rodata
.LC17:
	.string	"\342\213\206"
	.text
	.type	yy_107_Op, @function
yy_107_Op:
.LFB35:
	.loc 1 309 1
	.cfi_startproc
	endbr64
	pushq	%rbp
	.cfi_def_cfa_offset 16
	.cfi_offset 6, -16
	movq	%rsp, %rbp
	.cfi_def_cfa_register 6
	subq	$32, %rsp
1:	call	*mcount@GOTPCREL(%rip)
	movq	%rdi, -8(%rbp)
	movq	%rsi, -16(%rbp)
	movl	%edx, -20(%rbp)
	.loc 1 301 9
	leaq	.LC17(%rip), %rdi
	call	mk_op@PLT
	.loc 1 301 7
	movq	-8(%rbp), %rdx
	movq	%rax, 64(%rdx)
	.loc 1 306 1
	nop
	leave
	.cfi_def_cfa 7, 8
	ret
	.cfi_endproc
.LFE35:
	.size	yy_107_Op, .-yy_107_Op
	.section	.rodata
.LC18:
	.string	"\342\210\222"
	.text
	.type	yy_106_Op, @function
yy_106_Op:
.LFB36:
	.loc 1 308 1
	.cfi_startproc
	endbr64
	pushq	%rbp
	.cfi_def_cfa_offset 16
	.cfi_offset 6, -16
	movq	%rsp, %rbp
	.cfi_def_cfa_register 6
	subq	$32, %rsp
1:	call	*mcount@GOTPCREL(%rip)
	movq	%rdi, -8(%rbp)
	movq	%rsi, -16(%rbp)
	movl	%edx, -20(%rbp)
	.loc 1 300 9
	leaq	.LC18(%rip), %rdi
	call	mk_op@PLT
	.loc 1 300 7
	movq	-8(%rbp), %rdx
	movq	%rax, 64(%rdx)
	.loc 1 305 1
	nop
	leave
	.cfi_def_cfa 7, 8
	ret
	.cfi_endproc
.LFE36:
	.size	yy_106_Op, .-yy_106_Op
	.section	.rodata
.LC19:
	.string	"\303\267"
	.text
	.type	yy_105_Op, @function
yy_105_Op:
.LFB37:
	.loc 1 307 1
	.cfi_startproc
	endbr64
	pushq	%rbp
	.cfi_def_cfa_offset 16
	.cfi_offset 6, -16
	movq	%rsp, %rbp
	.cfi_def_cfa_register 6
	subq	$32, %rsp
1:	call	*mcount@GOTPCREL(%rip)
	movq	%rdi, -8(%rbp)
	movq	%rsi, -16(%rbp)
	movl	%edx, -20(%rbp)
	.loc 1 299 9
	leaq	.LC19(%rip), %rdi
	call	mk_op@PLT
	.loc 1 299 7
	movq	-8(%rbp), %rdx
	movq	%rax, 64(%rdx)
	.loc 1 304 1
	nop
	leave
	.cfi_def_cfa 7, 8
	ret
	.cfi_endproc
.LFE37:
	.size	yy_105_Op, .-yy_105_Op
	.section	.rodata
.LC20:
	.string	"!"
	.text
	.type	yy_104_Op, @function
yy_104_Op:
.LFB38:
	.loc 1 306 1
	.cfi_startproc
	endbr64
	pushq	%rbp
	.cfi_def_cfa_offset 16
	.cfi_offset 6, -16
	movq	%rsp, %rbp
	.cfi_def_cfa_register 6
	subq	$32, %rsp
1:	call	*mcount@GOTPCREL(%rip)
	movq	%rdi, -8(%rbp)
	movq	%rsi, -16(%rbp)
	movl	%edx, -20(%rbp)
	.loc 1 298 9
	leaq	.LC20(%rip), %rdi
	call	mk_op@PLT
	.loc 1 298 7
	movq	-8(%rbp), %rdx
	movq	%rax, 64(%rdx)
	.loc 1 303 1
	nop
	leave
	.cfi_def_cfa 7, 8
	ret
	.cfi_endproc
.LFE38:
	.size	yy_104_Op, .-yy_104_Op
	.section	.rodata
.LC21:
	.string	"+"
	.text
	.type	yy_103_Op, @function
yy_103_Op:
.LFB39:
	.loc 1 305 1
	.cfi_startproc
	endbr64
	pushq	%rbp
	.cfi_def_cfa_offset 16
	.cfi_offset 6, -16
	movq	%rsp, %rbp
	.cfi_def_cfa_register 6
	subq	$32, %rsp
1:	call	*mcount@GOTPCREL(%rip)
	movq	%rdi, -8(%rbp)
	movq	%rsi, -16(%rbp)
	movl	%edx, -20(%rbp)
	.loc 1 297 9
	leaq	.LC21(%rip), %rdi
	call	mk_op@PLT
	.loc 1 297 7
	movq	-8(%rbp), %rdx
	movq	%rax, 64(%rdx)
	.loc 1 302 1
	nop
	leave
	.cfi_def_cfa 7, 8
	ret
	.cfi_endproc
.LFE39:
	.size	yy_103_Op, .-yy_103_Op
	.section	.rodata
.LC22:
	.string	"max"
	.text
	.type	yy_102_Op, @function
yy_102_Op:
.LFB40:
	.loc 1 304 1
	.cfi_startproc
	endbr64
	pushq	%rbp
	.cfi_def_cfa_offset 16
	.cfi_offset 6, -16
	movq	%rsp, %rbp
	.cfi_def_cfa_register 6
	subq	$32, %rsp
1:	call	*mcount@GOTPCREL(%rip)
	movq	%rdi, -8(%rbp)
	movq	%rsi, -16(%rbp)
	movl	%edx, -20(%rbp)
	.loc 1 295 9
	leaq	.LC22(%rip), %rdi
	call	mk_underover@PLT
	.loc 1 295 7
	movq	-8(%rbp), %rdx
	movq	%rax, 64(%rdx)
	.loc 1 300 1
	nop
	leave
	.cfi_def_cfa 7, 8
	ret
	.cfi_endproc
.LFE40:
	.size	yy_102_Op, .-yy_102_Op
	.section	.rodata
.LC23:
	.string	"min"
	.text
	.type	yy_101_Op, @function
yy_101_Op:
.LFB41:
	.loc 1 302 1
	.cfi_startproc
	endbr64
	pushq	%rbp
	.cfi_def_cfa_offset 16
	.cfi_offset 6, -16
	movq	%rsp, %rbp
	.cfi_def_cfa_register 6
	subq	$32, %rsp
1:	call	*mcount@GOTPCREL(%rip)
	movq	%rdi, -8(%rbp)
	movq	%rsi, -16(%rbp)
	movl	%edx, -20(%rbp)
	.loc 1 294 9
	leaq	.LC23(%rip), %rdi
	call	mk_underover@PLT
	.loc 1 294 7
	movq	-8(%rbp), %rdx
	movq	%rax, 64(%rdx)
	.loc 1 299 1
	nop
	leave
	.cfi_def_cfa 7, 8
	ret
	.cfi_endproc
.LFE41:
	.size	yy_101_Op, .-yy_101_Op
	.section	.rodata
.LC24:
	.string	"Lim"
	.text
	.type	yy_100_Op, @function
yy_100_Op:
.LFB42:
	.loc 1 301 1
	.cfi_startproc
	endbr64
	pushq	%rbp
	.cfi_def_cfa_offset 16
	.cfi_offset 6, -16
	movq	%rsp, %rbp
	.cfi_def_cfa_register 6
	subq	$32, %rsp
1:	call	*mcount@GOTPCREL(%rip)
	movq	%rdi, -8(%rbp)
	movq	%rsi, -16(%rbp)
	movl	%edx, -20(%rbp)
	.loc 1 293 9
	leaq	.LC24(%rip), %rdi
	call	mk_underover@PLT
	.loc 1 293 7
	movq	-8(%rbp), %rdx
	movq	%rax, 64(%rdx)
	.loc 1 298 1
	nop
	leave
	.cfi_def_cfa 7, 8
	ret
	.cfi_endproc
.LFE42:
	.size	yy_100_Op, .-yy_100_Op
	.section	.rodata
.LC25:
	.string	"lim"
	.text
	.type	yy_99_Op, @function
yy_99_Op:
.LFB43:
	.loc 1 300 1
	.cfi_startproc
	endbr64
	pushq	%rbp
	.cfi_def_cfa_offset 16
	.cfi_offset 6, -16
	movq	%rsp, %rbp
	.cfi_def_cfa_register 6
	subq	$32, %rsp
1:	call	*mcount@GOTPCREL(%rip)
	movq	%rdi, -8(%rbp)
	movq	%rsi, -16(%rbp)
	movl	%edx, -20(%rbp)
	.loc 1 292 9
	leaq	.LC25(%rip), %rdi
	call	mk_underover@PLT
	.loc 1 292 7
	movq	-8(%rbp), %rdx
	movq	%rax, 64(%rdx)
	.loc 1 297 1
	nop
	leave
	.cfi_def_cfa 7, 8
	ret
	.cfi_endproc
.LFE43:
	.size	yy_99_Op, .-yy_99_Op
	.section	.rodata
.LC26:
	.string	"\342\213\203"
	.text
	.type	yy_98_Op, @function
yy_98_Op:
.LFB44:
	.loc 1 299 1
	.cfi_startproc
	endbr64
	pushq	%rbp
	.cfi_def_cfa_offset 16
	.cfi_offset 6, -16
	movq	%rsp, %rbp
	.cfi_def_cfa_register 6
	subq	$32, %rsp
1:	call	*mcount@GOTPCREL(%rip)
	movq	%rdi, -8(%rbp)
	movq	%rsi, -16(%rbp)
	movl	%edx, -20(%rbp)
	.loc 1 291 9
	leaq	.LC26(%rip), %rdi
	call	mk_underover@PLT
	.loc 1 291 7
	movq	-8(%rbp), %rdx
	movq	%rax, 64(%rdx)
	.loc 1 296 1
	nop
	leave
	.cfi_def_cfa 7, 8
	ret
	.cfi_endproc
.LFE44:
	.size	yy_98_Op, .-yy_98_Op
	.section	.rodata
.LC27:
	.string	"\342\213\202"
	.text
	.type	yy_97_Op, @function
yy_97_Op:
.LFB45:
	.loc 1 298 1
	.cfi_startproc
	endbr64
	pushq	%rbp
	.cfi_def_cfa_offset 16
	.cfi_offset 6, -16
	movq	%rsp, %rbp
	.cfi_def_cfa_register 6
	subq	$32, %rsp
1:	call	*mcount@GOTPCREL(%rip)
	movq	%rdi, -8(%rbp)
	movq	%rsi, -16(%rbp)
	movl	%edx, -20(%rbp)
	.loc 1 290 9
	leaq	.LC27(%rip), %rdi
	call	mk_underover@PLT
	.loc 1 290 7
	movq	-8(%rbp), %rdx
	movq	%rax, 64(%rdx)
	.loc 1 295 1
	nop
	leave
	.cfi_def_cfa 7, 8
	ret
	.cfi_endproc
.LFE45:
	.size	yy_97_Op, .-yy_97_Op
	.section	.rodata
.LC28:
	.string	"\342\213\201"
	.text
	.type	yy_96_Op, @function
yy_96_Op:
.LFB46:
	.loc 1 297 1
	.cfi_startproc
	endbr64
	pushq	%rbp
	.cfi_def_cfa_offset 16
	.cfi_offset 6, -16
	movq	%rsp, %rbp
	.cfi_def_cfa_register 6
	subq	$32, %rsp
1:	call	*mcount@GOTPCREL(%rip)
	movq	%rdi, -8(%rbp)
	movq	%rsi, -16(%rbp)
	movl	%edx, -20(%rbp)
	.loc 1 289 9
	leaq	.LC28(%rip), %rdi
	call	mk_underover@PLT
	.loc 1 289 7
	movq	-8(%rbp), %rdx
	movq	%rax, 64(%rdx)
	.loc 1 294 1
	nop
	leave
	.cfi_def_cfa 7, 8
	ret
	.cfi_endproc
.LFE46:
	.size	yy_96_Op, .-yy_96_Op
	.section	.rodata
.LC29:
	.string	"\342\213\200"
	.text
	.type	yy_95_Op, @function
yy_95_Op:
.LFB47:
	.loc 1 296 1
	.cfi_startproc
	endbr64
	pushq	%rbp
	.cfi_def_cfa_offset 16
	.cfi_offset 6, -16
	movq	%rsp, %rbp
	.cfi_def_cfa_register 6
	subq	$32, %rsp
1:	call	*mcount@GOTPCREL(%rip)
	movq	%rdi, -8(%rbp)
	movq	%rsi, -16(%rbp)
	movl	%edx, -20(%rbp)
	.loc 1 288 9
	leaq	.LC29(%rip), %rdi
	call	mk_underover@PLT
	.loc 1 288 7
	movq	-8(%rbp), %rdx
	movq	%rax, 64(%rdx)
	.loc 1 293 1
	nop
	leave
	.cfi_def_cfa 7, 8
	ret
	.cfi_endproc
.LFE47:
	.size	yy_95_Op, .-yy_95_Op
	.section	.rodata
.LC30:
	.string	"\316\240"
	.text
	.type	yy_94_Op, @function
yy_94_Op:
.LFB48:
	.loc 1 295 1
	.cfi_startproc
	endbr64
	pushq	%rbp
	.cfi_def_cfa_offset 16
	.cfi_offset 6, -16
	movq	%rsp, %rbp
	.cfi_def_cfa_register 6
	subq	$32, %rsp
1:	call	*mcount@GOTPCREL(%rip)
	movq	%rdi, -8(%rbp)
	movq	%rsi, -16(%rbp)
	movl	%edx, -20(%rbp)
	.loc 1 287 9
	leaq	.LC30(%rip), %rdi
	call	mk_underover@PLT
	.loc 1 287 7
	movq	-8(%rbp), %rdx
	movq	%rax, 64(%rdx)
	.loc 1 292 1
	nop
	leave
	.cfi_def_cfa 7, 8
	ret
	.cfi_endproc
.LFE48:
	.size	yy_94_Op, .-yy_94_Op
	.section	.rodata
.LC31:
	.string	"\316\243"
	.text
	.type	yy_93_Op, @function
yy_93_Op:
.LFB49:
	.loc 1 294 1
	.cfi_startproc
	endbr64
	pushq	%rbp
	.cfi_def_cfa_offset 16
	.cfi_offset 6, -16
	movq	%rsp, %rbp
	.cfi_def_cfa_register 6
	subq	$32, %rsp
1:	call	*mcount@GOTPCREL(%rip)
	movq	%rdi, -8(%rbp)
	movq	%rsi, -16(%rbp)
	movl	%edx, -20(%rbp)
	.loc 1 286 9
	leaq	.LC31(%rip), %rdi
	call	mk_underover@PLT
	.loc 1 286 7
	movq	-8(%rbp), %rdx
	movq	%rax, 64(%rdx)
	.loc 1 291 1
	nop
	leave
	.cfi_def_cfa 7, 8
	ret
	.cfi_endproc
.LFE49:
	.size	yy_93_Op, .-yy_93_Op
	.section	.rodata
.LC32:
	.string	"\342\210\245"
	.text
	.type	yy_92_Op, @function
yy_92_Op:
.LFB50:
	.loc 1 293 1
	.cfi_startproc
	endbr64
	pushq	%rbp
	.cfi_def_cfa_offset 16
	.cfi_offset 6, -16
	movq	%rsp, %rbp
	.cfi_def_cfa_register 6
	subq	$32, %rsp
1:	call	*mcount@GOTPCREL(%rip)
	movq	%rdi, -8(%rbp)
	movq	%rsi, -16(%rbp)
	movl	%edx, -20(%rbp)
	.loc 1 284 9
	leaq	.LC32(%rip), %rdi
	call	mk_op@PLT
	.loc 1 284 7
	movq	-8(%rbp), %rdx
	movq	%rax, 64(%rdx)
	.loc 1 289 1
	nop
	leave
	.cfi_def_cfa 7, 8
	ret
	.cfi_endproc
.LFE50:
	.size	yy_92_Op, .-yy_92_Op
	.section	.rodata
.LC33:
	.string	"\342\210\214"
	.text
	.type	yy_91_Op, @function
yy_91_Op:
.LFB51:
	.loc 1 291 1
	.cfi_startproc
	endbr64
	pushq	%rbp
	.cfi_def_cfa_offset 16
	.cfi_offset 6, -16
	movq	%rsp, %rbp
	.cfi_def_cfa_register 6
	subq	$32, %rsp
1:	call	*mcount@GOTPCREL(%rip)
	movq	%rdi, -8(%rbp)
	movq	%rsi, -16(%rbp)
	movl	%edx, -20(%rbp)
	.loc 1 283 9
	leaq	.LC33(%rip), %rdi
	call	mk_op@PLT
	.loc 1 283 7
	movq	-8(%rbp), %rdx
	movq	%rax, 64(%rdx)
	.loc 1 288 1
	nop
	leave
	.cfi_def_cfa 7, 8
	ret
	.cfi_endproc
.LFE51:
	.size	yy_91_Op, .-yy_91_Op
	.section	.rodata
.LC34:
	.string	"\342\210\213"
	.text
	.type	yy_90_Op, @function
yy_90_Op:
.LFB52:
	.loc 1 290 1
	.cfi_startproc
	endbr64
	pushq	%rbp
	.cfi_def_cfa_offset 16
	.cfi_offset 6, -16
	movq	%rsp, %rbp
	.cfi_def_cfa_register 6
	subq	$32, %rsp
1:	call	*mcount@GOTPCREL(%rip)
	movq	%rdi, -8(%rbp)
	movq	%rsi, -16(%rbp)
	movl	%edx, -20(%rbp)
	.loc 1 282 9
	leaq	.LC34(%rip), %rdi
	call	mk_op@PLT
	.loc 1 282 7
	movq	-8(%rbp), %rdx
	movq	%rax, 64(%rdx)
	.loc 1 287 1
	nop
	leave
	.cfi_def_cfa 7, 8
	ret
	.cfi_endproc
.LFE52:
	.size	yy_90_Op, .-yy_90_Op
	.section	.rodata
.LC35:
	.string	"\342\212\205"
	.text
	.type	yy_89_Op, @function
yy_89_Op:
.LFB53:
	.loc 1 289 1
	.cfi_startproc
	endbr64
	pushq	%rbp
	.cfi_def_cfa_offset 16
	.cfi_offset 6, -16
	movq	%rsp, %rbp
	.cfi_def_cfa_register 6
	subq	$32, %rsp
1:	call	*mcount@GOTPCREL(%rip)
	movq	%rdi, -8(%rbp)
	movq	%rsi, -16(%rbp)
	movl	%edx, -20(%rbp)
	.loc 1 281 9
	leaq	.LC35(%rip), %rdi
	call	mk_op@PLT
	.loc 1 281 7
	movq	-8(%rbp), %rdx
	movq	%rax, 64(%rdx)
	.loc 1 286 1
	nop
	leave
	.cfi_def_cfa 7, 8
	ret
	.cfi_endproc
.LFE53:
	.size	yy_89_Op, .-yy_89_Op
	.section	.rodata
.LC36:
	.string	"\342\212\204"
	.text
	.type	yy_88_Op, @function
yy_88_Op:
.LFB54:
	.loc 1 288 1
	.cfi_startproc
	endbr64
	pushq	%rbp
	.cfi_def_cfa_offset 16
	.cfi_offset 6, -16
	movq	%rsp, %rbp
	.cfi_def_cfa_register 6
	subq	$32, %rsp
1:	call	*mcount@GOTPCREL(%rip)
	movq	%rdi, -8(%rbp)
	movq	%rsi, -16(%rbp)
	movl	%edx, -20(%rbp)
	.loc 1 280 9
	leaq	.LC36(%rip), %rdi
	call	mk_op@PLT
	.loc 1 280 7
	movq	-8(%rbp), %rdx
	movq	%rax, 64(%rdx)
	.loc 1 285 1
	nop
	leave
	.cfi_def_cfa 7, 8
	ret
	.cfi_endproc
.LFE54:
	.size	yy_88_Op, .-yy_88_Op
	.section	.rodata
.LC37:
	.string	"\342\212\211"
	.text
	.type	yy_87_Op, @function
yy_87_Op:
.LFB55:
	.loc 1 287 1
	.cfi_startproc
	endbr64
	pushq	%rbp
	.cfi_def_cfa_offset 16
	.cfi_offset 6, -16
	movq	%rsp, %rbp
	.cfi_def_cfa_register 6
	subq	$32, %rsp
1:	call	*mcount@GOTPCREL(%rip)
	movq	%rdi, -8(%rbp)
	movq	%rsi, -16(%rbp)
	movl	%edx, -20(%rbp)
	.loc 1 279 9
	leaq	.LC37(%rip), %rdi
	call	mk_op@PLT
	.loc 1 279 7
	movq	-8(%rbp), %rdx
	movq	%rax, 64(%rdx)
	.loc 1 284 1
	nop
	leave
	.cfi_def_cfa 7, 8
	ret
	.cfi_endproc
.LFE55:
	.size	yy_87_Op, .-yy_87_Op
	.section	.rodata
.LC38:
	.string	"\342\212\210"
	.text
	.type	yy_86_Op, @function
yy_86_Op:
.LFB56:
	.loc 1 286 1
	.cfi_startproc
	endbr64
	pushq	%rbp
	.cfi_def_cfa_offset 16
	.cfi_offset 6, -16
	movq	%rsp, %rbp
	.cfi_def_cfa_register 6
	subq	$32, %rsp
1:	call	*mcount@GOTPCREL(%rip)
	movq	%rdi, -8(%rbp)
	movq	%rsi, -16(%rbp)
	movl	%edx, -20(%rbp)
	.loc 1 278 9
	leaq	.LC38(%rip), %rdi
	call	mk_op@PLT
	.loc 1 278 7
	movq	-8(%rbp), %rdx
	movq	%rax, 64(%rdx)
	.loc 1 283 1
	nop
	leave
	.cfi_def_cfa 7, 8
	ret
	.cfi_endproc
.LFE56:
	.size	yy_86_Op, .-yy_86_Op
	.section	.rodata
.LC39:
	.string	"\342\210\235"
	.text
	.type	yy_85_Op, @function
yy_85_Op:
.LFB57:
	.loc 1 285 1
	.cfi_startproc
	endbr64
	pushq	%rbp
	.cfi_def_cfa_offset 16
	.cfi_offset 6, -16
	movq	%rsp, %rbp
	.cfi_def_cfa_register 6
	subq	$32, %rsp
1:	call	*mcount@GOTPCREL(%rip)
	movq	%rdi, -8(%rbp)
	movq	%rsi, -16(%rbp)
	movl	%edx, -20(%rbp)
	.loc 1 277 9
	leaq	.LC39(%rip), %rdi
	call	mk_op@PLT
	.loc 1 277 7
	movq	-8(%rbp), %rdx
	movq	%rax, 64(%rdx)
	.loc 1 282 1
	nop
	leave
	.cfi_def_cfa 7, 8
	ret
	.cfi_endproc
.LFE57:
	.size	yy_85_Op, .-yy_85_Op
	.section	.rodata
.LC40:
	.string	"\342\211\210"
	.text
	.type	yy_84_Op, @function
yy_84_Op:
.LFB58:
	.loc 1 284 1
	.cfi_startproc
	endbr64
	pushq	%rbp
	.cfi_def_cfa_offset 16
	.cfi_offset 6, -16
	movq	%rsp, %rbp
	.cfi_def_cfa_register 6
	subq	$32, %rsp
1:	call	*mcount@GOTPCREL(%rip)
	movq	%rdi, -8(%rbp)
	movq	%rsi, -16(%rbp)
	movl	%edx, -20(%rbp)
	.loc 1 276 9
	leaq	.LC40(%rip), %rdi
	call	mk_op@PLT
	.loc 1 276 7
	movq	-8(%rbp), %rdx
	movq	%rax, 64(%rdx)
	.loc 1 281 1
	nop
	leave
	.cfi_def_cfa 7, 8
	ret
	.cfi_endproc
.LFE58:
	.size	yy_84_Op, .-yy_84_Op
	.section	.rodata
.LC41:
	.string	"\342\211\214"
	.text
	.type	yy_83_Op, @function
yy_83_Op:
.LFB59:
	.loc 1 283 1
	.cfi_startproc
	endbr64
	pushq	%rbp
	.cfi_def_cfa_offset 16
	.cfi_offset 6, -16
	movq	%rsp, %rbp
	.cfi_def_cfa_register 6
	subq	$32, %rsp
1:	call	*mcount@GOTPCREL(%rip)
	movq	%rdi, -8(%rbp)
	movq	%rsi, -16(%rbp)
	movl	%edx, -20(%rbp)
	.loc 1 275 9
	leaq	.LC41(%rip), %rdi
	call	mk_op@PLT
	.loc 1 275 7
	movq	-8(%rbp), %rdx
	movq	%rax, 64(%rdx)
	.loc 1 280 1
	nop
	leave
	.cfi_def_cfa 7, 8
	ret
	.cfi_endproc
.LFE59:
	.size	yy_83_Op, .-yy_83_Op
	.section	.rodata
.LC42:
	.string	"\342\211\241"
	.text
	.type	yy_82_Op, @function
yy_82_Op:
.LFB60:
	.loc 1 282 1
	.cfi_startproc
	endbr64
	pushq	%rbp
	.cfi_def_cfa_offset 16
	.cfi_offset 6, -16
	movq	%rsp, %rbp
	.cfi_def_cfa_register 6
	subq	$32, %rsp
1:	call	*mcount@GOTPCREL(%rip)
	movq	%rdi, -8(%rbp)
	movq	%rsi, -16(%rbp)
	movl	%edx, -20(%rbp)
	.loc 1 274 9
	leaq	.LC42(%rip), %rdi
	call	mk_op@PLT
	.loc 1 274 7
	movq	-8(%rbp), %rdx
	movq	%rax, 64(%rdx)
	.loc 1 279 1
	nop
	leave
	.cfi_def_cfa 7, 8
	ret
	.cfi_endproc
.LFE60:
	.size	yy_82_Op, .-yy_82_Op
	.section	.rodata
.LC43:
	.string	"\342\212\203"
	.text
	.type	yy_81_Op, @function
yy_81_Op:
.LFB61:
	.loc 1 281 1
	.cfi_startproc
	endbr64
	pushq	%rbp
	.cfi_def_cfa_offset 16
	.cfi_offset 6, -16
	movq	%rsp, %rbp
	.cfi_def_cfa_register 6
	subq	$32, %rsp
1:	call	*mcount@GOTPCREL(%rip)
	movq	%rdi, -8(%rbp)
	movq	%rsi, -16(%rbp)
	movl	%edx, -20(%rbp)
	.loc 1 273 9
	leaq	.LC43(%rip), %rdi
	call	mk_op@PLT
	.loc 1 273 7
	movq	-8(%rbp), %rdx
	movq	%rax, 64(%rdx)
	.loc 1 278 1
	nop
	leave
	.cfi_def_cfa 7, 8
	ret
	.cfi_endproc
.LFE61:
	.size	yy_81_Op, .-yy_81_Op
	.section	.rodata
.LC44:
	.string	"\342\212\207"
	.text
	.type	yy_80_Op, @function
yy_80_Op:
.LFB62:
	.loc 1 280 1
	.cfi_startproc
	endbr64
	pushq	%rbp
	.cfi_def_cfa_offset 16
	.cfi_offset 6, -16
	movq	%rsp, %rbp
	.cfi_def_cfa_register 6
	subq	$32, %rsp
1:	call	*mcount@GOTPCREL(%rip)
	movq	%rdi, -8(%rbp)
	movq	%rsi, -16(%rbp)
	movl	%edx, -20(%rbp)
	.loc 1 272 9
	leaq	.LC44(%rip), %rdi
	call	mk_op@PLT
	.loc 1 272 7
	movq	-8(%rbp), %rdx
	movq	%rax, 64(%rdx)
	.loc 1 277 1
	nop
	leave
	.cfi_def_cfa 7, 8
	ret
	.cfi_endproc
.LFE62:
	.size	yy_80_Op, .-yy_80_Op
	.section	.rodata
.LC45:
	.string	"\342\212\202"
	.text
	.type	yy_79_Op, @function
yy_79_Op:
.LFB63:
	.loc 1 279 1
	.cfi_startproc
	endbr64
	pushq	%rbp
	.cfi_def_cfa_offset 16
	.cfi_offset 6, -16
	movq	%rsp, %rbp
	.cfi_def_cfa_register 6
	subq	$32, %rsp
1:	call	*mcount@GOTPCREL(%rip)
	movq	%rdi, -8(%rbp)
	movq	%rsi, -16(%rbp)
	movl	%edx, -20(%rbp)
	.loc 1 271 9
	leaq	.LC45(%rip), %rdi
	call	mk_op@PLT
	.loc 1 271 7
	movq	-8(%rbp), %rdx
	movq	%rax, 64(%rdx)
	.loc 1 276 1
	nop
	leave
	.cfi_def_cfa 7, 8
	ret
	.cfi_endproc
.LFE63:
	.size	yy_79_Op, .-yy_79_Op
	.section	.rodata
.LC46:
	.string	"\342\212\206"
	.text
	.type	yy_78_Op, @function
yy_78_Op:
.LFB64:
	.loc 1 278 1
	.cfi_startproc
	endbr64
	pushq	%rbp
	.cfi_def_cfa_offset 16
	.cfi_offset 6, -16
	movq	%rsp, %rbp
	.cfi_def_cfa_register 6
	subq	$32, %rsp
1:	call	*mcount@GOTPCREL(%rip)
	movq	%rdi, -8(%rbp)
	movq	%rsi, -16(%rbp)
	movl	%edx, -20(%rbp)
	.loc 1 270 9
	leaq	.LC46(%rip), %rdi
	call	mk_op@PLT
	.loc 1 270 7
	movq	-8(%rbp), %rdx
	movq	%rax, 64(%rdx)
	.loc 1 275 1
	nop
	leave
	.cfi_def_cfa 7, 8
	ret
	.cfi_endproc
.LFE64:
	.size	yy_78_Op, .-yy_78_Op
	.section	.rodata
.LC47:
	.string	"\342\210\211"
	.text
	.type	yy_77_Op, @function
yy_77_Op:
.LFB65:
	.loc 1 277 1
	.cfi_startproc
	endbr64
	pushq	%rbp
	.cfi_def_cfa_offset 16
	.cfi_offset 6, -16
	movq	%rsp, %rbp
	.cfi_def_cfa_register 6
	subq	$32, %rsp
1:	call	*mcount@GOTPCREL(%rip)
	movq	%rdi, -8(%rbp)
	movq	%rsi, -16(%rbp)
	movl	%edx, -20(%rbp)
	.loc 1 269 9
	leaq	.LC47(%rip), %rdi
	call	mk_op@PLT
	.loc 1 269 7
	movq	-8(%rbp), %rdx
	movq	%rax, 64(%rdx)
	.loc 1 274 1
	nop
	leave
	.cfi_def_cfa 7, 8
	ret
	.cfi_endproc
.LFE65:
	.size	yy_77_Op, .-yy_77_Op
	.section	.rodata
.LC48:
	.string	"\342\210\210"
	.text
	.type	yy_76_Op, @function
yy_76_Op:
.LFB66:
	.loc 1 276 1
	.cfi_startproc
	endbr64
	pushq	%rbp
	.cfi_def_cfa_offset 16
	.cfi_offset 6, -16
	movq	%rsp, %rbp
	.cfi_def_cfa_register 6
	subq	$32, %rsp
1:	call	*mcount@GOTPCREL(%rip)
	movq	%rdi, -8(%rbp)
	movq	%rsi, -16(%rbp)
	movl	%edx, -20(%rbp)
	.loc 1 268 9
	leaq	.LC48(%rip), %rdi
	call	mk_op@PLT
	.loc 1 268 7
	movq	-8(%rbp), %rdx
	movq	%rax, 64(%rdx)
	.loc 1 273 1
	nop
	leave
	.cfi_def_cfa 7, 8
	ret
	.cfi_endproc
.LFE66:
	.size	yy_76_Op, .-yy_76_Op
	.section	.rodata
.LC49:
	.string	"&gt;"
	.text
	.type	yy_75_Op, @function
yy_75_Op:
.LFB67:
	.loc 1 275 1
	.cfi_startproc
	endbr64
	pushq	%rbp
	.cfi_def_cfa_offset 16
	.cfi_offset 6, -16
	movq	%rsp, %rbp
	.cfi_def_cfa_register 6
	subq	$32, %rsp
1:	call	*mcount@GOTPCREL(%rip)
	movq	%rdi, -8(%rbp)
	movq	%rsi, -16(%rbp)
	movl	%edx, -20(%rbp)
	.loc 1 267 9
	leaq	.LC49(%rip), %rdi
	call	mk_op@PLT
	.loc 1 267 7
	movq	-8(%rbp), %rdx
	movq	%rax, 64(%rdx)
	.loc 1 272 1
	nop
	leave
	.cfi_def_cfa 7, 8
	ret
	.cfi_endproc
.LFE67:
	.size	yy_75_Op, .-yy_75_Op
	.section	.rodata
.LC50:
	.string	"\342\211\273"
	.text
	.type	yy_74_Op, @function
yy_74_Op:
.LFB68:
	.loc 1 274 1
	.cfi_startproc
	endbr64
	pushq	%rbp
	.cfi_def_cfa_offset 16
	.cfi_offset 6, -16
	movq	%rsp, %rbp
	.cfi_def_cfa_register 6
	subq	$32, %rsp
1:	call	*mcount@GOTPCREL(%rip)
	movq	%rdi, -8(%rbp)
	movq	%rsi, -16(%rbp)
	movl	%edx, -20(%rbp)
	.loc 1 266 9
	leaq	.LC50(%rip), %rdi
	call	mk_op@PLT
	.loc 1 266 7
	movq	-8(%rbp), %rdx
	movq	%rax, 64(%rdx)
	.loc 1 271 1
	nop
	leave
	.cfi_def_cfa 7, 8
	ret
	.cfi_endproc
.LFE68:
	.size	yy_74_Op, .-yy_74_Op
	.section	.rodata
.LC51:
	.string	"\342\252\260"
	.text
	.type	yy_73_Op, @function
yy_73_Op:
.LFB69:
	.loc 1 273 1
	.cfi_startproc
	endbr64
	pushq	%rbp
	.cfi_def_cfa_offset 16
	.cfi_offset 6, -16
	movq	%rsp, %rbp
	.cfi_def_cfa_register 6
	subq	$32, %rsp
1:	call	*mcount@GOTPCREL(%rip)
	movq	%rdi, -8(%rbp)
	movq	%rsi, -16(%rbp)
	movl	%edx, -20(%rbp)
	.loc 1 265 9
	leaq	.LC51(%rip), %rdi
	call	mk_op@PLT
	.loc 1 265 7
	movq	-8(%rbp), %rdx
	movq	%rax, 64(%rdx)
	.loc 1 270 1
	nop
	leave
	.cfi_def_cfa 7, 8
	ret
	.cfi_endproc
.LFE69:
	.size	yy_73_Op, .-yy_73_Op
	.section	.rodata
.LC52:
	.string	"\342\211\245"
	.text
	.type	yy_72_Op, @function
yy_72_Op:
.LFB70:
	.loc 1 272 1
	.cfi_startproc
	endbr64
	pushq	%rbp
	.cfi_def_cfa_offset 16
	.cfi_offset 6, -16
	movq	%rsp, %rbp
	.cfi_def_cfa_register 6
	subq	$32, %rsp
1:	call	*mcount@GOTPCREL(%rip)
	movq	%rdi, -8(%rbp)
	movq	%rsi, -16(%rbp)
	movl	%edx, -20(%rbp)
	.loc 1 264 9
	leaq	.LC52(%rip), %rdi
	call	mk_op@PLT
	.loc 1 264 7
	movq	-8(%rbp), %rdx
	movq	%rax, 64(%rdx)
	.loc 1 269 1
	nop
	leave
	.cfi_def_cfa 7, 8
	ret
	.cfi_endproc
.LFE70:
	.size	yy_72_Op, .-yy_72_Op
	.section	.rodata
.LC53:
	.string	"\342\213\212"
	.text
	.type	yy_71_Op, @function
yy_71_Op:
.LFB71:
	.loc 1 271 1
	.cfi_startproc
	endbr64
	pushq	%rbp
	.cfi_def_cfa_offset 16
	.cfi_offset 6, -16
	movq	%rsp, %rbp
	.cfi_def_cfa_register 6
	subq	$32, %rsp
1:	call	*mcount@GOTPCREL(%rip)
	movq	%rdi, -8(%rbp)
	movq	%rsi, -16(%rbp)
	movl	%edx, -20(%rbp)
	.loc 1 263 9
	leaq	.LC53(%rip), %rdi
	call	mk_op@PLT
	.loc 1 263 7
	movq	-8(%rbp), %rdx
	movq	%rax, 64(%rdx)
	.loc 1 268 1
	nop
	leave
	.cfi_def_cfa 7, 8
	ret
	.cfi_endproc
.LFE71:
	.size	yy_71_Op, .-yy_71_Op
	.section	.rodata
.LC54:
	.string	"&lt;"
	.text
	.type	yy_70_Op, @function
yy_70_Op:
.LFB72:
	.loc 1 270 1
	.cfi_startproc
	endbr64
	pushq	%rbp
	.cfi_def_cfa_offset 16
	.cfi_offset 6, -16
	movq	%rsp, %rbp
	.cfi_def_cfa_register 6
	subq	$32, %rsp
1:	call	*mcount@GOTPCREL(%rip)
	movq	%rdi, -8(%rbp)
	movq	%rsi, -16(%rbp)
	movl	%edx, -20(%rbp)
	.loc 1 262 9
	leaq	.LC54(%rip), %rdi
	call	mk_op@PLT
	.loc 1 262 7
	movq	-8(%rbp), %rdx
	movq	%rax, 64(%rdx)
	.loc 1 267 1
	nop
	leave
	.cfi_def_cfa 7, 8
	ret
	.cfi_endproc
.LFE72:
	.size	yy_70_Op, .-yy_70_Op
	.section	.rodata
.LC55:
	.string	"\342\211\244"
	.text
	.type	yy_69_Op, @function
yy_69_Op:
.LFB73:
	.loc 1 269 1
	.cfi_startproc
	endbr64
	pushq	%rbp
	.cfi_def_cfa_offset 16
	.cfi_offset 6, -16
	movq	%rsp, %rbp
	.cfi_def_cfa_register 6
	subq	$32, %rsp
1:	call	*mcount@GOTPCREL(%rip)
	movq	%rdi, -8(%rbp)
	movq	%rsi, -16(%rbp)
	movl	%edx, -20(%rbp)
	.loc 1 261 9
	leaq	.LC55(%rip), %rdi
	call	mk_op@PLT
	.loc 1 261 7
	movq	-8(%rbp), %rdx
	movq	%rax, 64(%rdx)
	.loc 1 266 1
	nop
	leave
	.cfi_def_cfa 7, 8
	ret
	.cfi_endproc
.LFE73:
	.size	yy_69_Op, .-yy_69_Op
	.type	yy_68_Op, @function
yy_68_Op:
.LFB74:
	.loc 1 268 1
	.cfi_startproc
	endbr64
	pushq	%rbp
	.cfi_def_cfa_offset 16
	.cfi_offset 6, -16
	movq	%rsp, %rbp
	.cfi_def_cfa_register 6
	subq	$32, %rsp
1:	call	*mcount@GOTPCREL(%rip)
	movq	%rdi, -8(%rbp)
	movq	%rsi, -16(%rbp)
	movl	%edx, -20(%rbp)
	.loc 1 260 9
	leaq	.LC55(%rip), %rdi
	call	mk_op@PLT
	.loc 1 260 7
	movq	-8(%rbp), %rdx
	movq	%rax, 64(%rdx)
	.loc 1 265 1
	nop
	leave
	.cfi_def_cfa 7, 8
	ret
	.cfi_endproc
.LFE74:
	.size	yy_68_Op, .-yy_68_Op
	.section	.rodata
.LC56:
	.string	"\342\211\272"
	.text
	.type	yy_67_Op, @function
yy_67_Op:
.LFB75:
	.loc 1 267 1
	.cfi_startproc
	endbr64
	pushq	%rbp
	.cfi_def_cfa_offset 16
	.cfi_offset 6, -16
	movq	%rsp, %rbp
	.cfi_def_cfa_register 6
	subq	$32, %rsp
1:	call	*mcount@GOTPCREL(%rip)
	movq	%rdi, -8(%rbp)
	movq	%rsi, -16(%rbp)
	movl	%edx, -20(%rbp)
	.loc 1 259 9
	leaq	.LC56(%rip), %rdi
	call	mk_op@PLT
	.loc 1 259 7
	movq	-8(%rbp), %rdx
	movq	%rax, 64(%rdx)
	.loc 1 264 1
	nop
	leave
	.cfi_def_cfa 7, 8
	ret
	.cfi_endproc
.LFE75:
	.size	yy_67_Op, .-yy_67_Op
	.section	.rodata
.LC57:
	.string	"\342\252\257"
	.text
	.type	yy_66_Op, @function
yy_66_Op:
.LFB76:
	.loc 1 266 1
	.cfi_startproc
	endbr64
	pushq	%rbp
	.cfi_def_cfa_offset 16
	.cfi_offset 6, -16
	movq	%rsp, %rbp
	.cfi_def_cfa_register 6
	subq	$32, %rsp
1:	call	*mcount@GOTPCREL(%rip)
	movq	%rdi, -8(%rbp)
	movq	%rsi, -16(%rbp)
	movl	%edx, -20(%rbp)
	.loc 1 258 9
	leaq	.LC57(%rip), %rdi
	call	mk_op@PLT
	.loc 1 258 7
	movq	-8(%rbp), %rdx
	movq	%rax, 64(%rdx)
	.loc 1 263 1
	nop
	leave
	.cfi_def_cfa 7, 8
	ret
	.cfi_endproc
.LFE76:
	.size	yy_66_Op, .-yy_66_Op
	.section	.rodata
.LC58:
	.string	"\342\211\224"
	.text
	.type	yy_65_Op, @function
yy_65_Op:
.LFB77:
	.loc 1 265 1
	.cfi_startproc
	endbr64
	pushq	%rbp
	.cfi_def_cfa_offset 16
	.cfi_offset 6, -16
	movq	%rsp, %rbp
	.cfi_def_cfa_register 6
	subq	$32, %rsp
1:	call	*mcount@GOTPCREL(%rip)
	movq	%rdi, -8(%rbp)
	movq	%rsi, -16(%rbp)
	movl	%edx, -20(%rbp)
	.loc 1 257 9
	leaq	.LC58(%rip), %rdi
	call	mk_op@PLT
	.loc 1 257 7
	movq	-8(%rbp), %rdx
	movq	%rax, 64(%rdx)
	.loc 1 262 1
	nop
	leave
	.cfi_def_cfa 7, 8
	ret
	.cfi_endproc
.LFE77:
	.size	yy_65_Op, .-yy_65_Op
	.section	.rodata
.LC59:
	.string	"\342\211\240"
	.text
	.type	yy_64_Op, @function
yy_64_Op:
.LFB78:
	.loc 1 264 1
	.cfi_startproc
	endbr64
	pushq	%rbp
	.cfi_def_cfa_offset 16
	.cfi_offset 6, -16
	movq	%rsp, %rbp
	.cfi_def_cfa_register 6
	subq	$32, %rsp
1:	call	*mcount@GOTPCREL(%rip)
	movq	%rdi, -8(%rbp)
	movq	%rsi, -16(%rbp)
	movl	%edx, -20(%rbp)
	.loc 1 256 9
	leaq	.LC59(%rip), %rdi
	call	mk_op@PLT
	.loc 1 256 7
	movq	-8(%rbp), %rdx
	movq	%rax, 64(%rdx)
	.loc 1 261 1
	nop
	leave
	.cfi_def_cfa 7, 8
	ret
	.cfi_endproc
.LFE78:
	.size	yy_64_Op, .-yy_64_Op
	.section	.rodata
.LC60:
	.string	"="
	.text
	.type	yy_63_Op, @function
yy_63_Op:
.LFB79:
	.loc 1 263 1
	.cfi_startproc
	endbr64
	pushq	%rbp
	.cfi_def_cfa_offset 16
	.cfi_offset 6, -16
	movq	%rsp, %rbp
	.cfi_def_cfa_register 6
	subq	$32, %rsp
1:	call	*mcount@GOTPCREL(%rip)
	movq	%rdi, -8(%rbp)
	movq	%rsi, -16(%rbp)
	movl	%edx, -20(%rbp)
	.loc 1 255 9
	leaq	.LC60(%rip), %rdi
	call	mk_op@PLT
	.loc 1 255 7
	movq	-8(%rbp), %rdx
	movq	%rax, 64(%rdx)
	.loc 1 260 1
	nop
	leave
	.cfi_def_cfa 7, 8
	ret
	.cfi_endproc
.LFE79:
	.size	yy_63_Op, .-yy_63_Op
	.section	.rodata
.LC61:
	.string	"\342\210\216"
	.text
	.type	yy_62_Op, @function
yy_62_Op:
.LFB80:
	.loc 1 262 1
	.cfi_startproc
	endbr64
	pushq	%rbp
	.cfi_def_cfa_offset 16
	.cfi_offset 6, -16
	movq	%rsp, %rbp
	.cfi_def_cfa_register 6
	subq	$32, %rsp
1:	call	*mcount@GOTPCREL(%rip)
	movq	%rdi, -8(%rbp)
	movq	%rsi, -16(%rbp)
	movl	%edx, -20(%rbp)
	.loc 1 253 9
	leaq	.LC61(%rip), %rdi
	call	mk_op@PLT
	.loc 1 253 7
	movq	-8(%rbp), %rdx
	movq	%rax, 64(%rdx)
	.loc 1 258 1
	nop
	leave
	.cfi_def_cfa 7, 8
	ret
	.cfi_endproc
.LFE80:
	.size	yy_62_Op, .-yy_62_Op
	.section	.rodata
.LC62:
	.string	"\342\204\244"
	.text
	.type	yy_61_Op, @function
yy_61_Op:
.LFB81:
	.loc 1 260 1
	.cfi_startproc
	endbr64
	pushq	%rbp
	.cfi_def_cfa_offset 16
	.cfi_offset 6, -16
	movq	%rsp, %rbp
	.cfi_def_cfa_register 6
	subq	$32, %rsp
1:	call	*mcount@GOTPCREL(%rip)
	movq	%rdi, -8(%rbp)
	movq	%rsi, -16(%rbp)
	movl	%edx, -20(%rbp)
	.loc 1 252 9
	leaq	.LC62(%rip), %rdi
	call	mk_id@PLT
	.loc 1 252 7
	movq	-8(%rbp), %rdx
	movq	%rax, 64(%rdx)
	.loc 1 257 1
	nop
	leave
	.cfi_def_cfa 7, 8
	ret
	.cfi_endproc
.LFE81:
	.size	yy_61_Op, .-yy_61_Op
	.section	.rodata
.LC63:
	.string	"\342\204\235"
	.text
	.type	yy_60_Op, @function
yy_60_Op:
.LFB82:
	.loc 1 259 1
	.cfi_startproc
	endbr64
	pushq	%rbp
	.cfi_def_cfa_offset 16
	.cfi_offset 6, -16
	movq	%rsp, %rbp
	.cfi_def_cfa_register 6
	subq	$32, %rsp
1:	call	*mcount@GOTPCREL(%rip)
	movq	%rdi, -8(%rbp)
	movq	%rsi, -16(%rbp)
	movl	%edx, -20(%rbp)
	.loc 1 251 9
	leaq	.LC63(%rip), %rdi
	call	mk_id@PLT
	.loc 1 251 7
	movq	-8(%rbp), %rdx
	movq	%rax, 64(%rdx)
	.loc 1 256 1
	nop
	leave
	.cfi_def_cfa 7, 8
	ret
	.cfi_endproc
.LFE82:
	.size	yy_60_Op, .-yy_60_Op
	.section	.rodata
.LC64:
	.string	"\342\204\232"
	.text
	.type	yy_59_Op, @function
yy_59_Op:
.LFB83:
	.loc 1 258 1
	.cfi_startproc
	endbr64
	pushq	%rbp
	.cfi_def_cfa_offset 16
	.cfi_offset 6, -16
	movq	%rsp, %rbp
	.cfi_def_cfa_register 6
	subq	$32, %rsp
1:	call	*mcount@GOTPCREL(%rip)
	movq	%rdi, -8(%rbp)
	movq	%rsi, -16(%rbp)
	movl	%edx, -20(%rbp)
	.loc 1 250 9
	leaq	.LC64(%rip), %rdi
	call	mk_id@PLT
	.loc 1 250 7
	movq	-8(%rbp), %rdx
	movq	%rax, 64(%rdx)
	.loc 1 255 1
	nop
	leave
	.cfi_def_cfa 7, 8
	ret
	.cfi_endproc
.LFE83:
	.size	yy_59_Op, .-yy_59_Op
	.section	.rodata
.LC65:
	.string	"\342\204\225"
	.text
	.type	yy_58_Op, @function
yy_58_Op:
.LFB84:
	.loc 1 257 1
	.cfi_startproc
	endbr64
	pushq	%rbp
	.cfi_def_cfa_offset 16
	.cfi_offset 6, -16
	movq	%rsp, %rbp
	.cfi_def_cfa_register 6
	subq	$32, %rsp
1:	call	*mcount@GOTPCREL(%rip)
	movq	%rdi, -8(%rbp)
	movq	%rsi, -16(%rbp)
	movl	%edx, -20(%rbp)
	.loc 1 249 9
	leaq	.LC65(%rip), %rdi
	call	mk_id@PLT
	.loc 1 249 7
	movq	-8(%rbp), %rdx
	movq	%rax, 64(%rdx)
	.loc 1 254 1
	nop
	leave
	.cfi_def_cfa 7, 8
	ret
	.cfi_endproc
.LFE84:
	.size	yy_58_Op, .-yy_58_Op
	.section	.rodata
.LC66:
	.string	"\342\204\202"
	.text
	.type	yy_57_Op, @function
yy_57_Op:
.LFB85:
	.loc 1 256 1
	.cfi_startproc
	endbr64
	pushq	%rbp
	.cfi_def_cfa_offset 16
	.cfi_offset 6, -16
	movq	%rsp, %rbp
	.cfi_def_cfa_register 6
	subq	$32, %rsp
1:	call	*mcount@GOTPCREL(%rip)
	movq	%rdi, -8(%rbp)
	movq	%rsi, -16(%rbp)
	movl	%edx, -20(%rbp)
	.loc 1 248 9
	leaq	.LC66(%rip), %rdi
	call	mk_id@PLT
	.loc 1 248 7
	movq	-8(%rbp), %rdx
	movq	%rax, 64(%rdx)
	.loc 1 253 1
	nop
	leave
	.cfi_def_cfa 7, 8
	ret
	.cfi_endproc
.LFE85:
	.size	yy_57_Op, .-yy_57_Op
	.section	.rodata
.LC67:
	.string	"\342\214\211"
	.text
	.type	yy_56_Op, @function
yy_56_Op:
.LFB86:
	.loc 1 255 1
	.cfi_startproc
	endbr64
	pushq	%rbp
	.cfi_def_cfa_offset 16
	.cfi_offset 6, -16
	movq	%rsp, %rbp
	.cfi_def_cfa_register 6
	subq	$32, %rsp
1:	call	*mcount@GOTPCREL(%rip)
	movq	%rdi, -8(%rbp)
	movq	%rsi, -16(%rbp)
	movl	%edx, -20(%rbp)
	.loc 1 247 9
	leaq	.LC67(%rip), %rdi
	call	mk_op@PLT
	.loc 1 247 7
	movq	-8(%rbp), %rdx
	movq	%rax, 64(%rdx)
	.loc 1 252 1
	nop
	leave
	.cfi_def_cfa 7, 8
	ret
	.cfi_endproc
.LFE86:
	.size	yy_56_Op, .-yy_56_Op
	.section	.rodata
.LC68:
	.string	"\342\214\210"
	.text
	.type	yy_55_Op, @function
yy_55_Op:
.LFB87:
	.loc 1 254 1
	.cfi_startproc
	endbr64
	pushq	%rbp
	.cfi_def_cfa_offset 16
	.cfi_offset 6, -16
	movq	%rsp, %rbp
	.cfi_def_cfa_register 6
	subq	$32, %rsp
1:	call	*mcount@GOTPCREL(%rip)
	movq	%rdi, -8(%rbp)
	movq	%rsi, -16(%rbp)
	movl	%edx, -20(%rbp)
	.loc 1 246 9
	leaq	.LC68(%rip), %rdi
	call	mk_op@PLT
	.loc 1 246 7
	movq	-8(%rbp), %rdx
	movq	%rax, 64(%rdx)
	.loc 1 251 1
	nop
	leave
	.cfi_def_cfa 7, 8
	ret
	.cfi_endproc
.LFE87:
	.size	yy_55_Op, .-yy_55_Op
	.section	.rodata
.LC69:
	.string	"\342\214\213"
	.text
	.type	yy_54_Op, @function
yy_54_Op:
.LFB88:
	.loc 1 253 1
	.cfi_startproc
	endbr64
	pushq	%rbp
	.cfi_def_cfa_offset 16
	.cfi_offset 6, -16
	movq	%rsp, %rbp
	.cfi_def_cfa_register 6
	subq	$32, %rsp
1:	call	*mcount@GOTPCREL(%rip)
	movq	%rdi, -8(%rbp)
	movq	%rsi, -16(%rbp)
	movl	%edx, -20(%rbp)
	.loc 1 245 9
	leaq	.LC69(%rip), %rdi
	call	mk_op@PLT
	.loc 1 245 7
	movq	-8(%rbp), %rdx
	movq	%rax, 64(%rdx)
	.loc 1 250 1
	nop
	leave
	.cfi_def_cfa 7, 8
	ret
	.cfi_endproc
.LFE88:
	.size	yy_54_Op, .-yy_54_Op
	.section	.rodata
.LC70:
	.string	"\342\214\212"
	.text
	.type	yy_53_Op, @function
yy_53_Op:
.LFB89:
	.loc 1 252 1
	.cfi_startproc
	endbr64
	pushq	%rbp
	.cfi_def_cfa_offset 16
	.cfi_offset 6, -16
	movq	%rsp, %rbp
	.cfi_def_cfa_register 6
	subq	$32, %rsp
1:	call	*mcount@GOTPCREL(%rip)
	movq	%rdi, -8(%rbp)
	movq	%rsi, -16(%rbp)
	movl	%edx, -20(%rbp)
	.loc 1 244 9
	leaq	.LC70(%rip), %rdi
	call	mk_op@PLT
	.loc 1 244 7
	movq	-8(%rbp), %rdx
	movq	%rax, 64(%rdx)
	.loc 1 249 1
	nop
	leave
	.cfi_def_cfa 7, 8
	ret
	.cfi_endproc
.LFE89:
	.size	yy_53_Op, .-yy_53_Op
	.section	.rodata
.LC71:
	.string	"\342\226\241"
	.text
	.type	yy_52_Op, @function
yy_52_Op:
.LFB90:
	.loc 1 251 1
	.cfi_startproc
	endbr64
	pushq	%rbp
	.cfi_def_cfa_offset 16
	.cfi_offset 6, -16
	movq	%rsp, %rbp
	.cfi_def_cfa_register 6
	subq	$32, %rsp
1:	call	*mcount@GOTPCREL(%rip)
	movq	%rdi, -8(%rbp)
	movq	%rsi, -16(%rbp)
	movl	%edx, -20(%rbp)
	.loc 1 243 9
	leaq	.LC71(%rip), %rdi
	call	mk_op@PLT
	.loc 1 243 7
	movq	-8(%rbp), %rdx
	movq	%rax, 64(%rdx)
	.loc 1 248 1
	nop
	leave
	.cfi_def_cfa 7, 8
	ret
	.cfi_endproc
.LFE90:
	.size	yy_52_Op, .-yy_52_Op
	.section	.rodata
.LC72:
	.string	"\342\213\204"
	.text
	.type	yy_51_Op, @function
yy_51_Op:
.LFB91:
	.loc 1 250 1
	.cfi_startproc
	endbr64
	pushq	%rbp
	.cfi_def_cfa_offset 16
	.cfi_offset 6, -16
	movq	%rsp, %rbp
	.cfi_def_cfa_register 6
	subq	$32, %rsp
1:	call	*mcount@GOTPCREL(%rip)
	movq	%rdi, -8(%rbp)
	movq	%rsi, -16(%rbp)
	movl	%edx, -20(%rbp)
	.loc 1 242 9
	leaq	.LC72(%rip), %rdi
	call	mk_op@PLT
	.loc 1 242 7
	movq	-8(%rbp), %rdx
	movq	%rax, 64(%rdx)
	.loc 1 247 1
	nop
	leave
	.cfi_def_cfa 7, 8
	ret
	.cfi_endproc
.LFE91:
	.size	yy_51_Op, .-yy_51_Op
	.section	.rodata
.LC73:
	.string	"\342\213\261"
	.text
	.type	yy_50_Op, @function
yy_50_Op:
.LFB92:
	.loc 1 249 1
	.cfi_startproc
	endbr64
	pushq	%rbp
	.cfi_def_cfa_offset 16
	.cfi_offset 6, -16
	movq	%rsp, %rbp
	.cfi_def_cfa_register 6
	subq	$32, %rsp
1:	call	*mcount@GOTPCREL(%rip)
	movq	%rdi, -8(%rbp)
	movq	%rsi, -16(%rbp)
	movl	%edx, -20(%rbp)
	.loc 1 241 9
	leaq	.LC73(%rip), %rdi
	call	mk_op@PLT
	.loc 1 241 7
	movq	-8(%rbp), %rdx
	movq	%rax, 64(%rdx)
	.loc 1 246 1
	nop
	leave
	.cfi_def_cfa 7, 8
	ret
	.cfi_endproc
.LFE92:
	.size	yy_50_Op, .-yy_50_Op
	.section	.rodata
.LC74:
	.string	"\342\213\256"
	.text
	.type	yy_49_Op, @function
yy_49_Op:
.LFB93:
	.loc 1 248 1
	.cfi_startproc
	endbr64
	pushq	%rbp
	.cfi_def_cfa_offset 16
	.cfi_offset 6, -16
	movq	%rsp, %rbp
	.cfi_def_cfa_register 6
	subq	$32, %rsp
1:	call	*mcount@GOTPCREL(%rip)
	movq	%rdi, -8(%rbp)
	movq	%rsi, -16(%rbp)
	movl	%edx, -20(%rbp)
	.loc 1 240 9
	leaq	.LC74(%rip), %rdi
	call	mk_op@PLT
	.loc 1 240 7
	movq	-8(%rbp), %rdx
	movq	%rax, 64(%rdx)
	.loc 1 245 1
	nop
	leave
	.cfi_def_cfa 7, 8
	ret
	.cfi_endproc
.LFE93:
	.size	yy_49_Op, .-yy_49_Op
	.section	.rodata
.LC75:
	.string	"\342\213\257"
	.text
	.type	yy_48_Op, @function
yy_48_Op:
.LFB94:
	.loc 1 247 1
	.cfi_startproc
	endbr64
	pushq	%rbp
	.cfi_def_cfa_offset 16
	.cfi_offset 6, -16
	movq	%rsp, %rbp
	.cfi_def_cfa_register 6
	subq	$32, %rsp
1:	call	*mcount@GOTPCREL(%rip)
	movq	%rdi, -8(%rbp)
	movq	%rsi, -16(%rbp)
	movl	%edx, -20(%rbp)
	.loc 1 239 9
	leaq	.LC75(%rip), %rdi
	call	mk_op@PLT
	.loc 1 239 7
	movq	-8(%rbp), %rdx
	movq	%rax, 64(%rdx)
	.loc 1 244 1
	nop
	leave
	.cfi_def_cfa 7, 8
	ret
	.cfi_endproc
.LFE94:
	.size	yy_48_Op, .-yy_48_Op
	.section	.rodata
.LC76:
	.string	"&nbsp;&nbsp;&nbsp;&nbsp;"
	.text
	.type	yy_47_Op, @function
yy_47_Op:
.LFB95:
	.loc 1 246 1
	.cfi_startproc
	endbr64
	pushq	%rbp
	.cfi_def_cfa_offset 16
	.cfi_offset 6, -16
	movq	%rsp, %rbp
	.cfi_def_cfa_register 6
	subq	$32, %rsp
1:	call	*mcount@GOTPCREL(%rip)
	movq	%rdi, -8(%rbp)
	movq	%rsi, -16(%rbp)
	movl	%edx, -20(%rbp)
	.loc 1 238 9
	leaq	.LC76(%rip), %rdi
	call	mk_op@PLT
	.loc 1 238 7
	movq	-8(%rbp), %rdx
	movq	%rax, 64(%rdx)
	.loc 1 243 1
	nop
	leave
	.cfi_def_cfa 7, 8
	ret
	.cfi_endproc
.LFE95:
	.size	yy_47_Op, .-yy_47_Op
	.section	.rodata
.LC77:
	.string	"&nbsp;&nbsp;"
	.text
	.type	yy_46_Op, @function
yy_46_Op:
.LFB96:
	.loc 1 245 1
	.cfi_startproc
	endbr64
	pushq	%rbp
	.cfi_def_cfa_offset 16
	.cfi_offset 6, -16
	movq	%rsp, %rbp
	.cfi_def_cfa_register 6
	subq	$32, %rsp
1:	call	*mcount@GOTPCREL(%rip)
	movq	%rdi, -8(%rbp)
	movq	%rsi, -16(%rbp)
	movl	%edx, -20(%rbp)
	.loc 1 237 9
	leaq	.LC77(%rip), %rdi
	call	mk_op@PLT
	.loc 1 237 7
	movq	-8(%rbp), %rdx
	movq	%rax, 64(%rdx)
	.loc 1 242 1
	nop
	leave
	.cfi_def_cfa 7, 8
	ret
	.cfi_endproc
.LFE96:
	.size	yy_46_Op, .-yy_46_Op
	.section	.rodata
.LC78:
	.string	"\342\214\242"
	.text
	.type	yy_45_Op, @function
yy_45_Op:
.LFB97:
	.loc 1 244 1
	.cfi_startproc
	endbr64
	pushq	%rbp
	.cfi_def_cfa_offset 16
	.cfi_offset 6, -16
	movq	%rsp, %rbp
	.cfi_def_cfa_register 6
	subq	$32, %rsp
1:	call	*mcount@GOTPCREL(%rip)
	movq	%rdi, -8(%rbp)
	movq	%rsi, -16(%rbp)
	movl	%edx, -20(%rbp)
	.loc 1 236 9
	leaq	.LC78(%rip), %rdi
	call	mk_op@PLT
	.loc 1 236 7
	movq	-8(%rbp), %rdx
	movq	%rax, 64(%rdx)
	.loc 1 241 1
	nop
	leave
	.cfi_def_cfa 7, 8
	ret
	.cfi_endproc
.LFE97:
	.size	yy_45_Op, .-yy_45_Op
	.section	.rodata
.LC79:
	.string	"&nbsp;"
	.text
	.type	yy_44_Op, @function
yy_44_Op:
.LFB98:
	.loc 1 243 1
	.cfi_startproc
	endbr64
	pushq	%rbp
	.cfi_def_cfa_offset 16
	.cfi_offset 6, -16
	movq	%rsp, %rbp
	.cfi_def_cfa_register 6
	subq	$32, %rsp
1:	call	*mcount@GOTPCREL(%rip)
	movq	%rdi, -8(%rbp)
	movq	%rsi, -16(%rbp)
	movl	%edx, -20(%rbp)
	.loc 1 235 9
	leaq	.LC79(%rip), %rdi
	call	mk_op@PLT
	.loc 1 235 7
	movq	-8(%rbp), %rdx
	movq	%rax, 64(%rdx)
	.loc 1 240 1
	nop
	leave
	.cfi_def_cfa 7, 8
	ret
	.cfi_endproc
.LFE98:
	.size	yy_44_Op, .-yy_44_Op
	.section	.rodata
.LC80:
	.string	"\342\200\262"
	.text
	.type	yy_43_Op, @function
yy_43_Op:
.LFB99:
	.loc 1 242 1
	.cfi_startproc
	endbr64
	pushq	%rbp
	.cfi_def_cfa_offset 16
	.cfi_offset 6, -16
	movq	%rsp, %rbp
	.cfi_def_cfa_register 6
	subq	$32, %rsp
1:	call	*mcount@GOTPCREL(%rip)
	movq	%rdi, -8(%rbp)
	movq	%rsi, -16(%rbp)
	movl	%edx, -20(%rbp)
	.loc 1 234 9
	leaq	.LC80(%rip), %rdi
	call	mk_op@PLT
	.loc 1 234 7
	movq	-8(%rbp), %rdx
	movq	%rax, 64(%rdx)
	.loc 1 239 1
	nop
	leave
	.cfi_def_cfa 7, 8
	ret
	.cfi_endproc
.LFE99:
	.size	yy_43_Op, .-yy_43_Op
	.section	.rodata
.LC81:
	.string	"\342\210\240"
	.text
	.type	yy_42_Op, @function
yy_42_Op:
.LFB100:
	.loc 1 241 1
	.cfi_startproc
	endbr64
	pushq	%rbp
	.cfi_def_cfa_offset 16
	.cfi_offset 6, -16
	movq	%rsp, %rbp
	.cfi_def_cfa_register 6
	subq	$32, %rsp
1:	call	*mcount@GOTPCREL(%rip)
	movq	%rdi, -8(%rbp)
	movq	%rsi, -16(%rbp)
	movl	%edx, -20(%rbp)
	.loc 1 233 9
	leaq	.LC81(%rip), %rdi
	call	mk_op@PLT
	.loc 1 233 7
	movq	-8(%rbp), %rdx
	movq	%rax, 64(%rdx)
	.loc 1 238 1
	nop
	leave
	.cfi_def_cfa 7, 8
	ret
	.cfi_endproc
.LFE100:
	.size	yy_42_Op, .-yy_42_Op
	.section	.rodata
.LC82:
	.string	"\342\226\263"
	.text
	.type	yy_41_Op, @function
yy_41_Op:
.LFB101:
	.loc 1 240 1
	.cfi_startproc
	endbr64
	pushq	%rbp
	.cfi_def_cfa_offset 16
	.cfi_offset 6, -16
	movq	%rsp, %rbp
	.cfi_def_cfa_register 6
	subq	$32, %rsp
1:	call	*mcount@GOTPCREL(%rip)
	movq	%rdi, -8(%rbp)
	movq	%rsi, -16(%rbp)
	movl	%edx, -20(%rbp)
	.loc 1 232 9
	leaq	.LC82(%rip), %rdi
	call	mk_op@PLT
	.loc 1 232 7
	movq	-8(%rbp), %rdx
	movq	%rax, 64(%rdx)
	.loc 1 237 1
	nop
	leave
	.cfi_def_cfa 7, 8
	ret
	.cfi_endproc
.LFE101:
	.size	yy_41_Op, .-yy_41_Op
	.section	.rodata
.LC83:
	.string	"\342\210\264"
	.text
	.type	yy_40_Op, @function
yy_40_Op:
.LFB102:
	.loc 1 239 1
	.cfi_startproc
	endbr64
	pushq	%rbp
	.cfi_def_cfa_offset 16
	.cfi_offset 6, -16
	movq	%rsp, %rbp
	.cfi_def_cfa_register 6
	subq	$32, %rsp
1:	call	*mcount@GOTPCREL(%rip)
	movq	%rdi, -8(%rbp)
	movq	%rsi, -16(%rbp)
	movl	%edx, -20(%rbp)
	.loc 1 231 9
	leaq	.LC83(%rip), %rdi
	call	mk_op@PLT
	.loc 1 231 7
	movq	-8(%rbp), %rdx
	movq	%rax, 64(%rdx)
	.loc 1 236 1
	nop
	leave
	.cfi_def_cfa 7, 8
	ret
	.cfi_endproc
.LFE102:
	.size	yy_40_Op, .-yy_40_Op
	.section	.rodata
.LC84:
	.string	"\342\200\246"
	.text
	.type	yy_39_Op, @function
yy_39_Op:
.LFB103:
	.loc 1 238 1
	.cfi_startproc
	endbr64
	pushq	%rbp
	.cfi_def_cfa_offset 16
	.cfi_offset 6, -16
	movq	%rsp, %rbp
	.cfi_def_cfa_register 6
	subq	$32, %rsp
1:	call	*mcount@GOTPCREL(%rip)
	movq	%rdi, -8(%rbp)
	movq	%rsi, -16(%rbp)
	movl	%edx, -20(%rbp)
	.loc 1 230 9
	leaq	.LC84(%rip), %rdi
	call	mk_op@PLT
	.loc 1 230 7
	movq	-8(%rbp), %rdx
	movq	%rax, 64(%rdx)
	.loc 1 235 1
	nop
	leave
	.cfi_def_cfa 7, 8
	ret
	.cfi_endproc
.LFE103:
	.size	yy_39_Op, .-yy_39_Op
	.section	.rodata
.LC85:
	.string	"\342\204\265"
	.text
	.type	yy_38_Op, @function
yy_38_Op:
.LFB104:
	.loc 1 237 1
	.cfi_startproc
	endbr64
	pushq	%rbp
	.cfi_def_cfa_offset 16
	.cfi_offset 6, -16
	movq	%rsp, %rbp
	.cfi_def_cfa_register 6
	subq	$32, %rsp
1:	call	*mcount@GOTPCREL(%rip)
	movq	%rdi, -8(%rbp)
	movq	%rsi, -16(%rbp)
	movl	%edx, -20(%rbp)
	.loc 1 229 9
	leaq	.LC85(%rip), %rdi
	call	mk_op@PLT
	.loc 1 229 7
	movq	-8(%rbp), %rdx
	movq	%rax, 64(%rdx)
	.loc 1 234 1
	nop
	leave
	.cfi_def_cfa 7, 8
	ret
	.cfi_endproc
.LFE104:
	.size	yy_38_Op, .-yy_38_Op
	.section	.rodata
.LC86:
	.string	"\342\210\236"
	.text
	.type	yy_37_Op, @function
yy_37_Op:
.LFB105:
	.loc 1 236 1
	.cfi_startproc
	endbr64
	pushq	%rbp
	.cfi_def_cfa_offset 16
	.cfi_offset 6, -16
	movq	%rsp, %rbp
	.cfi_def_cfa_register 6
	subq	$32, %rsp
1:	call	*mcount@GOTPCREL(%rip)
	movq	%rdi, -8(%rbp)
	movq	%rsi, -16(%rbp)
	movl	%edx, -20(%rbp)
	.loc 1 228 9
	leaq	.LC86(%rip), %rdi
	call	mk_op@PLT
	.loc 1 228 7
	movq	-8(%rbp), %rdx
	movq	%rax, 64(%rdx)
	.loc 1 233 1
	nop
	leave
	.cfi_def_cfa 7, 8
	ret
	.cfi_endproc
.LFE105:
	.size	yy_37_Op, .-yy_37_Op
	.section	.rodata
.LC87:
	.string	"\342\210\205"
	.text
	.type	yy_36_Op, @function
yy_36_Op:
.LFB106:
	.loc 1 235 1
	.cfi_startproc
	endbr64
	pushq	%rbp
	.cfi_def_cfa_offset 16
	.cfi_offset 6, -16
	movq	%rsp, %rbp
	.cfi_def_cfa_register 6
	subq	$32, %rsp
1:	call	*mcount@GOTPCREL(%rip)
	movq	%rdi, -8(%rbp)
	movq	%rsi, -16(%rbp)
	movl	%edx, -20(%rbp)
	.loc 1 227 9
	leaq	.LC87(%rip), %rdi
	call	mk_op@PLT
	.loc 1 227 7
	movq	-8(%rbp), %rdx
	movq	%rax, 64(%rdx)
	.loc 1 232 1
	nop
	leave
	.cfi_def_cfa 7, 8
	ret
	.cfi_endproc
.LFE106:
	.size	yy_36_Op, .-yy_36_Op
	.section	.rodata
.LC88:
	.string	"\302\261"
	.text
	.type	yy_35_Op, @function
yy_35_Op:
.LFB107:
	.loc 1 234 1
	.cfi_startproc
	endbr64
	pushq	%rbp
	.cfi_def_cfa_offset 16
	.cfi_offset 6, -16
	movq	%rsp, %rbp
	.cfi_def_cfa_register 6
	subq	$32, %rsp
1:	call	*mcount@GOTPCREL(%rip)
	movq	%rdi, -8(%rbp)
	movq	%rsi, -16(%rbp)
	movl	%edx, -20(%rbp)
	.loc 1 226 9
	leaq	.LC88(%rip), %rdi
	call	mk_op@PLT
	.loc 1 226 7
	movq	-8(%rbp), %rdx
	movq	%rax, 64(%rdx)
	.loc 1 231 1
	nop
	leave
	.cfi_def_cfa 7, 8
	ret
	.cfi_endproc
.LFE107:
	.size	yy_35_Op, .-yy_35_Op
	.section	.rodata
.LC89:
	.string	"\342\210\207"
	.text
	.type	yy_34_Op, @function
yy_34_Op:
.LFB108:
	.loc 1 233 1
	.cfi_startproc
	endbr64
	pushq	%rbp
	.cfi_def_cfa_offset 16
	.cfi_offset 6, -16
	movq	%rsp, %rbp
	.cfi_def_cfa_register 6
	subq	$32, %rsp
1:	call	*mcount@GOTPCREL(%rip)
	movq	%rdi, -8(%rbp)
	movq	%rsi, -16(%rbp)
	movl	%edx, -20(%rbp)
	.loc 1 225 9
	leaq	.LC89(%rip), %rdi
	call	mk_op@PLT
	.loc 1 225 7
	movq	-8(%rbp), %rdx
	movq	%rax, 64(%rdx)
	.loc 1 230 1
	nop
	leave
	.cfi_def_cfa 7, 8
	ret
	.cfi_endproc
.LFE108:
	.size	yy_34_Op, .-yy_34_Op
	.section	.rodata
.LC90:
	.string	"\342\210\202"
	.text
	.type	yy_33_Op, @function
yy_33_Op:
.LFB109:
	.loc 1 232 1
	.cfi_startproc
	endbr64
	pushq	%rbp
	.cfi_def_cfa_offset 16
	.cfi_offset 6, -16
	movq	%rsp, %rbp
	.cfi_def_cfa_register 6
	subq	$32, %rsp
1:	call	*mcount@GOTPCREL(%rip)
	movq	%rdi, -8(%rbp)
	movq	%rsi, -16(%rbp)
	movl	%edx, -20(%rbp)
	.loc 1 224 9
	leaq	.LC90(%rip), %rdi
	call	mk_op@PLT
	.loc 1 224 7
	movq	-8(%rbp), %rdx
	movq	%rax, 64(%rdx)
	.loc 1 229 1
	nop
	leave
	.cfi_def_cfa 7, 8
	ret
	.cfi_endproc
.LFE109:
	.size	yy_33_Op, .-yy_33_Op
	.section	.rodata
.LC91:
	.string	"\342\210\256"
	.text
	.type	yy_32_Op, @function
yy_32_Op:
.LFB110:
	.loc 1 231 1
	.cfi_startproc
	endbr64
	pushq	%rbp
	.cfi_def_cfa_offset 16
	.cfi_offset 6, -16
	movq	%rsp, %rbp
	.cfi_def_cfa_register 6
	subq	$32, %rsp
1:	call	*mcount@GOTPCREL(%rip)
	movq	%rdi, -8(%rbp)
	movq	%rsi, -16(%rbp)
	movl	%edx, -20(%rbp)
	.loc 1 223 9
	leaq	.LC91(%rip), %rdi
	call	mk_op@PLT
	.loc 1 223 7
	movq	-8(%rbp), %rdx
	movq	%rax, 64(%rdx)
	.loc 1 228 1
	nop
	leave
	.cfi_def_cfa 7, 8
	ret
	.cfi_endproc
.LFE110:
	.size	yy_32_Op, .-yy_32_Op
	.section	.rodata
.LC92:
	.string	"\342\210\253"
	.text
	.type	yy_31_Op, @function
yy_31_Op:
.LFB111:
	.loc 1 230 1
	.cfi_startproc
	endbr64
	pushq	%rbp
	.cfi_def_cfa_offset 16
	.cfi_offset 6, -16
	movq	%rsp, %rbp
	.cfi_def_cfa_register 6
	subq	$32, %rsp
1:	call	*mcount@GOTPCREL(%rip)
	movq	%rdi, -8(%rbp)
	movq	%rsi, -16(%rbp)
	movl	%edx, -20(%rbp)
	.loc 1 222 9
	leaq	.LC92(%rip), %rdi
	call	mk_op@PLT
	.loc 1 222 7
	movq	-8(%rbp), %rdx
	movq	%rax, 64(%rdx)
	.loc 1 227 1
	nop
	leave
	.cfi_def_cfa 7, 8
	ret
	.cfi_endproc
.LFE111:
	.size	yy_31_Op, .-yy_31_Op
	.section	.rodata
.LC93:
	.string	"\342\212\250"
	.text
	.type	yy_30_Op, @function
yy_30_Op:
.LFB112:
	.loc 1 229 1
	.cfi_startproc
	endbr64
	pushq	%rbp
	.cfi_def_cfa_offset 16
	.cfi_offset 6, -16
	movq	%rsp, %rbp
	.cfi_def_cfa_register 6
	subq	$32, %rsp
1:	call	*mcount@GOTPCREL(%rip)
	movq	%rdi, -8(%rbp)
	movq	%rsi, -16(%rbp)
	movl	%edx, -20(%rbp)
	.loc 1 220 9
	leaq	.LC93(%rip), %rdi
	call	mk_op@PLT
	.loc 1 220 7
	movq	-8(%rbp), %rdx
	movq	%rax, 64(%rdx)
	.loc 1 225 1
	nop
	leave
	.cfi_def_cfa 7, 8
	ret
	.cfi_endproc
.LFE112:
	.size	yy_30_Op, .-yy_30_Op
	.section	.rodata
.LC94:
	.string	"\342\212\242"
	.text
	.type	yy_29_Op, @function
yy_29_Op:
.LFB113:
	.loc 1 227 1
	.cfi_startproc
	endbr64
	pushq	%rbp
	.cfi_def_cfa_offset 16
	.cfi_offset 6, -16
	movq	%rsp, %rbp
	.cfi_def_cfa_register 6
	subq	$32, %rsp
1:	call	*mcount@GOTPCREL(%rip)
	movq	%rdi, -8(%rbp)
	movq	%rsi, -16(%rbp)
	movl	%edx, -20(%rbp)
	.loc 1 219 9
	leaq	.LC94(%rip), %rdi
	call	mk_op@PLT
	.loc 1 219 7
	movq	-8(%rbp), %rdx
	movq	%rax, 64(%rdx)
	.loc 1 224 1
	nop
	leave
	.cfi_def_cfa 7, 8
	ret
	.cfi_endproc
.LFE113:
	.size	yy_29_Op, .-yy_29_Op
	.section	.rodata
.LC95:
	.string	"\342\212\244"
	.text
	.type	yy_28_Op, @function
yy_28_Op:
.LFB114:
	.loc 1 226 1
	.cfi_startproc
	endbr64
	pushq	%rbp
	.cfi_def_cfa_offset 16
	.cfi_offset 6, -16
	movq	%rsp, %rbp
	.cfi_def_cfa_register 6
	subq	$32, %rsp
1:	call	*mcount@GOTPCREL(%rip)
	movq	%rdi, -8(%rbp)
	movq	%rsi, -16(%rbp)
	movl	%edx, -20(%rbp)
	.loc 1 218 9
	leaq	.LC95(%rip), %rdi
	call	mk_op@PLT
	.loc 1 218 7
	movq	-8(%rbp), %rdx
	movq	%rax, 64(%rdx)
	.loc 1 223 1
	nop
	leave
	.cfi_def_cfa 7, 8
	ret
	.cfi_endproc
.LFE114:
	.size	yy_28_Op, .-yy_28_Op
	.section	.rodata
.LC96:
	.string	"\342\212\245"
	.text
	.type	yy_27_Op, @function
yy_27_Op:
.LFB115:
	.loc 1 225 1
	.cfi_startproc
	endbr64
	pushq	%rbp
	.cfi_def_cfa_offset 16
	.cfi_offset 6, -16
	movq	%rsp, %rbp
	.cfi_def_cfa_register 6
	subq	$32, %rsp
1:	call	*mcount@GOTPCREL(%rip)
	movq	%rdi, -8(%rbp)
	movq	%rsi, -16(%rbp)
	movl	%edx, -20(%rbp)
	.loc 1 217 9
	leaq	.LC96(%rip), %rdi
	call	mk_op@PLT
	.loc 1 217 7
	movq	-8(%rbp), %rdx
	movq	%rax, 64(%rdx)
	.loc 1 222 1
	nop
	leave
	.cfi_def_cfa 7, 8
	ret
	.cfi_endproc
.LFE115:
	.size	yy_27_Op, .-yy_27_Op
	.section	.rodata
.LC97:
	.string	"\342\210\203"
	.text
	.type	yy_26_Op, @function
yy_26_Op:
.LFB116:
	.loc 1 224 1
	.cfi_startproc
	endbr64
	pushq	%rbp
	.cfi_def_cfa_offset 16
	.cfi_offset 6, -16
	movq	%rsp, %rbp
	.cfi_def_cfa_register 6
	subq	$32, %rsp
1:	call	*mcount@GOTPCREL(%rip)
	movq	%rdi, -8(%rbp)
	movq	%rsi, -16(%rbp)
	movl	%edx, -20(%rbp)
	.loc 1 216 9
	leaq	.LC97(%rip), %rdi
	call	mk_op@PLT
	.loc 1 216 7
	movq	-8(%rbp), %rdx
	movq	%rax, 64(%rdx)
	.loc 1 221 1
	nop
	leave
	.cfi_def_cfa 7, 8
	ret
	.cfi_endproc
.LFE116:
	.size	yy_26_Op, .-yy_26_Op
	.section	.rodata
.LC98:
	.string	"\342\210\200"
	.text
	.type	yy_25_Op, @function
yy_25_Op:
.LFB117:
	.loc 1 223 1
	.cfi_startproc
	endbr64
	pushq	%rbp
	.cfi_def_cfa_offset 16
	.cfi_offset 6, -16
	movq	%rsp, %rbp
	.cfi_def_cfa_register 6
	subq	$32, %rsp
1:	call	*mcount@GOTPCREL(%rip)
	movq	%rdi, -8(%rbp)
	movq	%rsi, -16(%rbp)
	movl	%edx, -20(%rbp)
	.loc 1 215 9
	leaq	.LC98(%rip), %rdi
	call	mk_op@PLT
	.loc 1 215 7
	movq	-8(%rbp), %rdx
	movq	%rax, 64(%rdx)
	.loc 1 220 1
	nop
	leave
	.cfi_def_cfa 7, 8
	ret
	.cfi_endproc
.LFE117:
	.size	yy_25_Op, .-yy_25_Op
	.section	.rodata
.LC99:
	.string	"\342\207\224"
	.text
	.type	yy_24_Op, @function
yy_24_Op:
.LFB118:
	.loc 1 222 1
	.cfi_startproc
	endbr64
	pushq	%rbp
	.cfi_def_cfa_offset 16
	.cfi_offset 6, -16
	movq	%rsp, %rbp
	.cfi_def_cfa_register 6
	subq	$32, %rsp
1:	call	*mcount@GOTPCREL(%rip)
	movq	%rdi, -8(%rbp)
	movq	%rsi, -16(%rbp)
	movl	%edx, -20(%rbp)
	.loc 1 214 9
	leaq	.LC99(%rip), %rdi
	call	mk_op@PLT
	.loc 1 214 7
	movq	-8(%rbp), %rdx
	movq	%rax, 64(%rdx)
	.loc 1 219 1
	nop
	leave
	.cfi_def_cfa 7, 8
	ret
	.cfi_endproc
.LFE118:
	.size	yy_24_Op, .-yy_24_Op
	.section	.rodata
.LC100:
	.string	"if"
	.text
	.type	yy_23_Op, @function
yy_23_Op:
.LFB119:
	.loc 1 221 1
	.cfi_startproc
	endbr64
	pushq	%rbp
	.cfi_def_cfa_offset 16
	.cfi_offset 6, -16
	movq	%rsp, %rbp
	.cfi_def_cfa_register 6
	subq	$32, %rsp
1:	call	*mcount@GOTPCREL(%rip)
	movq	%rdi, -8(%rbp)
	movq	%rsi, -16(%rbp)
	movl	%edx, -20(%rbp)
	.loc 1 213 9
	leaq	.LC100(%rip), %rdi
	call	mk_op@PLT
	.loc 1 213 7
	movq	-8(%rbp), %rdx
	movq	%rax, 64(%rdx)
	.loc 1 218 1
	nop
	leave
	.cfi_def_cfa 7, 8
	ret
	.cfi_endproc
.LFE119:
	.size	yy_23_Op, .-yy_23_Op
	.section	.rodata
.LC101:
	.string	"\342\207\222"
	.text
	.type	yy_22_Op, @function
yy_22_Op:
.LFB120:
	.loc 1 220 1
	.cfi_startproc
	endbr64
	pushq	%rbp
	.cfi_def_cfa_offset 16
	.cfi_offset 6, -16
	movq	%rsp, %rbp
	.cfi_def_cfa_register 6
	subq	$32, %rsp
1:	call	*mcount@GOTPCREL(%rip)
	movq	%rdi, -8(%rbp)
	movq	%rsi, -16(%rbp)
	movl	%edx, -20(%rbp)
	.loc 1 212 9
	leaq	.LC101(%rip), %rdi
	call	mk_op@PLT
	.loc 1 212 7
	movq	-8(%rbp), %rdx
	movq	%rax, 64(%rdx)
	.loc 1 217 1
	nop
	leave
	.cfi_def_cfa 7, 8
	ret
	.cfi_endproc
.LFE120:
	.size	yy_22_Op, .-yy_22_Op
	.section	.rodata
.LC102:
	.string	"\302\254"
	.text
	.type	yy_21_Op, @function
yy_21_Op:
.LFB121:
	.loc 1 219 1
	.cfi_startproc
	endbr64
	pushq	%rbp
	.cfi_def_cfa_offset 16
	.cfi_offset 6, -16
	movq	%rsp, %rbp
	.cfi_def_cfa_register 6
	subq	$32, %rsp
1:	call	*mcount@GOTPCREL(%rip)
	movq	%rdi, -8(%rbp)
	movq	%rsi, -16(%rbp)
	movl	%edx, -20(%rbp)
	.loc 1 211 9
	leaq	.LC102(%rip), %rdi
	call	mk_op@PLT
	.loc 1 211 7
	movq	-8(%rbp), %rdx
	movq	%rax, 64(%rdx)
	.loc 1 216 1
	nop
	leave
	.cfi_def_cfa 7, 8
	ret
	.cfi_endproc
.LFE121:
	.size	yy_21_Op, .-yy_21_Op
	.section	.rodata
.LC103:
	.string	"or"
	.text
	.type	yy_20_Op, @function
yy_20_Op:
.LFB122:
	.loc 1 218 1
	.cfi_startproc
	endbr64
	pushq	%rbp
	.cfi_def_cfa_offset 16
	.cfi_offset 6, -16
	movq	%rsp, %rbp
	.cfi_def_cfa_register 6
	subq	$32, %rsp
1:	call	*mcount@GOTPCREL(%rip)
	movq	%rdi, -8(%rbp)
	movq	%rsi, -16(%rbp)
	movl	%edx, -20(%rbp)
	.loc 1 210 9
	leaq	.LC103(%rip), %rdi
	call	mk_op@PLT
	.loc 1 210 7
	movq	-8(%rbp), %rdx
	movq	%rax, 64(%rdx)
	.loc 1 215 1
	nop
	leave
	.cfi_def_cfa 7, 8
	ret
	.cfi_endproc
.LFE122:
	.size	yy_20_Op, .-yy_20_Op
	.section	.rodata
.LC104:
	.string	"and"
	.text
	.type	yy_19_Op, @function
yy_19_Op:
.LFB123:
	.loc 1 217 1
	.cfi_startproc
	endbr64
	pushq	%rbp
	.cfi_def_cfa_offset 16
	.cfi_offset 6, -16
	movq	%rsp, %rbp
	.cfi_def_cfa_register 6
	subq	$32, %rsp
1:	call	*mcount@GOTPCREL(%rip)
	movq	%rdi, -8(%rbp)
	movq	%rsi, -16(%rbp)
	movl	%edx, -20(%rbp)
	.loc 1 209 9
	leaq	.LC104(%rip), %rdi
	call	mk_op@PLT
	.loc 1 209 7
	movq	-8(%rbp), %rdx
	movq	%rax, 64(%rdx)
	.loc 1 214 1
	nop
	leave
	.cfi_def_cfa 7, 8
	ret
	.cfi_endproc
.LFE123:
	.size	yy_19_Op, .-yy_19_Op
	.type	yy_18_Op, @function
yy_18_Op:
.LFB124:
	.loc 1 216 1
	.cfi_startproc
	endbr64
	pushq	%rbp
	.cfi_def_cfa_offset 16
	.cfi_offset 6, -16
	movq	%rsp, %rbp
	.cfi_def_cfa_register 6
	subq	$32, %rsp
1:	call	*mcount@GOTPCREL(%rip)
	movq	%rdi, -8(%rbp)
	movq	%rsi, -16(%rbp)
	movl	%edx, -20(%rbp)
	.loc 1 207 9
	leaq	.LC99(%rip), %rdi
	call	mk_op@PLT
	.loc 1 207 7
	movq	-8(%rbp), %rdx
	movq	%rax, 64(%rdx)
	.loc 1 212 1
	nop
	leave
	.cfi_def_cfa 7, 8
	ret
	.cfi_endproc
.LFE124:
	.size	yy_18_Op, .-yy_18_Op
	.section	.rodata
.LC105:
	.string	"\342\206\224"
	.text
	.type	yy_17_Op, @function
yy_17_Op:
.LFB125:
	.loc 1 214 1
	.cfi_startproc
	endbr64
	pushq	%rbp
	.cfi_def_cfa_offset 16
	.cfi_offset 6, -16
	movq	%rsp, %rbp
	.cfi_def_cfa_register 6
	subq	$32, %rsp
1:	call	*mcount@GOTPCREL(%rip)
	movq	%rdi, -8(%rbp)
	movq	%rsi, -16(%rbp)
	movl	%edx, -20(%rbp)
	.loc 1 206 9
	leaq	.LC105(%rip), %rdi
	call	mk_op@PLT
	.loc 1 206 7
	movq	-8(%rbp), %rdx
	movq	%rax, 64(%rdx)
	.loc 1 211 1
	nop
	leave
	.cfi_def_cfa 7, 8
	ret
	.cfi_endproc
.LFE125:
	.size	yy_17_Op, .-yy_17_Op
	.section	.rodata
.LC106:
	.string	"\342\206\240"
	.text
	.type	yy_16_Op, @function
yy_16_Op:
.LFB126:
	.loc 1 213 1
	.cfi_startproc
	endbr64
	pushq	%rbp
	.cfi_def_cfa_offset 16
	.cfi_offset 6, -16
	movq	%rsp, %rbp
	.cfi_def_cfa_register 6
	subq	$32, %rsp
1:	call	*mcount@GOTPCREL(%rip)
	movq	%rdi, -8(%rbp)
	movq	%rsi, -16(%rbp)
	movl	%edx, -20(%rbp)
	.loc 1 205 9
	leaq	.LC106(%rip), %rdi
	call	mk_op@PLT
	.loc 1 205 7
	movq	-8(%rbp), %rdx
	movq	%rax, 64(%rdx)
	.loc 1 210 1
	nop
	leave
	.cfi_def_cfa 7, 8
	ret
	.cfi_endproc
.LFE126:
	.size	yy_16_Op, .-yy_16_Op
	.section	.rodata
.LC107:
	.string	"\342\206\243"
	.text
	.type	yy_15_Op, @function
yy_15_Op:
.LFB127:
	.loc 1 212 1
	.cfi_startproc
	endbr64
	pushq	%rbp
	.cfi_def_cfa_offset 16
	.cfi_offset 6, -16
	movq	%rsp, %rbp
	.cfi_def_cfa_register 6
	subq	$32, %rsp
1:	call	*mcount@GOTPCREL(%rip)
	movq	%rdi, -8(%rbp)
	movq	%rsi, -16(%rbp)
	movl	%edx, -20(%rbp)
	.loc 1 204 9
	leaq	.LC107(%rip), %rdi
	call	mk_op@PLT
	.loc 1 204 7
	movq	-8(%rbp), %rdx
	movq	%rax, 64(%rdx)
	.loc 1 209 1
	nop
	leave
	.cfi_def_cfa 7, 8
	ret
	.cfi_endproc
.LFE127:
	.size	yy_15_Op, .-yy_15_Op
	.section	.rodata
.LC108:
	.string	"\342\244\226"
	.text
	.type	yy_14_Op, @function
yy_14_Op:
.LFB128:
	.loc 1 211 1
	.cfi_startproc
	endbr64
	pushq	%rbp
	.cfi_def_cfa_offset 16
	.cfi_offset 6, -16
	movq	%rsp, %rbp
	.cfi_def_cfa_register 6
	subq	$32, %rsp
1:	call	*mcount@GOTPCREL(%rip)
	movq	%rdi, -8(%rbp)
	movq	%rsi, -16(%rbp)
	movl	%edx, -20(%rbp)
	.loc 1 203 9
	leaq	.LC108(%rip), %rdi
	call	mk_op@PLT
	.loc 1 203 7
	movq	-8(%rbp), %rdx
	movq	%rax, 64(%rdx)
	.loc 1 208 1
	nop
	leave
	.cfi_def_cfa 7, 8
	ret
	.cfi_endproc
.LFE128:
	.size	yy_14_Op, .-yy_14_Op
	.section	.rodata
.LC109:
	.string	"\342\206\222"
	.text
	.type	yy_13_Op, @function
yy_13_Op:
.LFB129:
	.loc 1 210 1
	.cfi_startproc
	endbr64
	pushq	%rbp
	.cfi_def_cfa_offset 16
	.cfi_offset 6, -16
	movq	%rsp, %rbp
	.cfi_def_cfa_register 6
	subq	$32, %rsp
1:	call	*mcount@GOTPCREL(%rip)
	movq	%rdi, -8(%rbp)
	movq	%rsi, -16(%rbp)
	movl	%edx, -20(%rbp)
	.loc 1 202 9
	leaq	.LC109(%rip), %rdi
	call	mk_op@PLT
	.loc 1 202 7
	movq	-8(%rbp), %rdx
	movq	%rax, 64(%rdx)
	.loc 1 207 1
	nop
	leave
	.cfi_def_cfa 7, 8
	ret
	.cfi_endproc
.LFE129:
	.size	yy_13_Op, .-yy_13_Op
	.type	yy_12_Op, @function
yy_12_Op:
.LFB130:
	.loc 1 209 1
	.cfi_startproc
	endbr64
	pushq	%rbp
	.cfi_def_cfa_offset 16
	.cfi_offset 6, -16
	movq	%rsp, %rbp
	.cfi_def_cfa_register 6
	subq	$32, %rsp
1:	call	*mcount@GOTPCREL(%rip)
	movq	%rdi, -8(%rbp)
	movq	%rsi, -16(%rbp)
	movl	%edx, -20(%rbp)
	.loc 1 201 9
	leaq	.LC106(%rip), %rdi
	call	mk_op@PLT
	.loc 1 201 7
	movq	-8(%rbp), %rdx
	movq	%rax, 64(%rdx)
	.loc 1 206 1
	nop
	leave
	.cfi_def_cfa 7, 8
	ret
	.cfi_endproc
.LFE130:
	.size	yy_12_Op, .-yy_12_Op
	.type	yy_11_Op, @function
yy_11_Op:
.LFB131:
	.loc 1 208 1
	.cfi_startproc
	endbr64
	pushq	%rbp
	.cfi_def_cfa_offset 16
	.cfi_offset 6, -16
	movq	%rsp, %rbp
	.cfi_def_cfa_register 6
	subq	$32, %rsp
1:	call	*mcount@GOTPCREL(%rip)
	movq	%rdi, -8(%rbp)
	movq	%rsi, -16(%rbp)
	movl	%edx, -20(%rbp)
	.loc 1 200 9
	leaq	.LC107(%rip), %rdi
	call	mk_op@PLT
	.loc 1 200 7
	movq	-8(%rbp), %rdx
	movq	%rax, 64(%rdx)
	.loc 1 205 1
	nop
	leave
	.cfi_def_cfa 7, 8
	ret
	.cfi_endproc
.LFE131:
	.size	yy_11_Op, .-yy_11_Op
	.type	yy_10_Op, @function
yy_10_Op:
.LFB132:
	.loc 1 207 1
	.cfi_startproc
	endbr64
	pushq	%rbp
	.cfi_def_cfa_offset 16
	.cfi_offset 6, -16
	movq	%rsp, %rbp
	.cfi_def_cfa_register 6
	subq	$32, %rsp
1:	call	*mcount@GOTPCREL(%rip)
	movq	%rdi, -8(%rbp)
	movq	%rsi, -16(%rbp)
	movl	%edx, -20(%rbp)
	.loc 1 199 9
	leaq	.LC108(%rip), %rdi
	call	mk_op@PLT
	.loc 1 199 7
	movq	-8(%rbp), %rdx
	movq	%rax, 64(%rdx)
	.loc 1 204 1
	nop
	leave
	.cfi_def_cfa 7, 8
	ret
	.cfi_endproc
.LFE132:
	.size	yy_10_Op, .-yy_10_Op
	.section	.rodata
.LC110:
	.string	"\342\206\246"
	.text
	.type	yy_9_Op, @function
yy_9_Op:
.LFB133:
	.loc 1 206 1
	.cfi_startproc
	endbr64
	pushq	%rbp
	.cfi_def_cfa_offset 16
	.cfi_offset 6, -16
	movq	%rsp, %rbp
	.cfi_def_cfa_register 6
	subq	$32, %rsp
1:	call	*mcount@GOTPCREL(%rip)
	movq	%rdi, -8(%rbp)
	movq	%rsi, -16(%rbp)
	movl	%edx, -20(%rbp)
	.loc 1 198 9
	leaq	.LC110(%rip), %rdi
	call	mk_op@PLT
	.loc 1 198 7
	movq	-8(%rbp), %rdx
	movq	%rax, 64(%rdx)
	.loc 1 203 1
	nop
	leave
	.cfi_def_cfa 7, 8
	ret
	.cfi_endproc
.LFE133:
	.size	yy_9_Op, .-yy_9_Op
	.type	yy_8_Op, @function
yy_8_Op:
.LFB134:
	.loc 1 205 1
	.cfi_startproc
	endbr64
	pushq	%rbp
	.cfi_def_cfa_offset 16
	.cfi_offset 6, -16
	movq	%rsp, %rbp
	.cfi_def_cfa_register 6
	subq	$32, %rsp
1:	call	*mcount@GOTPCREL(%rip)
	movq	%rdi, -8(%rbp)
	movq	%rsi, -16(%rbp)
	movl	%edx, -20(%rbp)
	.loc 1 197 9
	leaq	.LC99(%rip), %rdi
	call	mk_op@PLT
	.loc 1 197 7
	movq	-8(%rbp), %rdx
	movq	%rax, 64(%rdx)
	.loc 1 202 1
	nop
	leave
	.cfi_def_cfa 7, 8
	ret
	.cfi_endproc
.LFE134:
	.size	yy_8_Op, .-yy_8_Op
	.section	.rodata
.LC111:
	.string	"\342\207\220"
	.text
	.type	yy_7_Op, @function
yy_7_Op:
.LFB135:
	.loc 1 204 1
	.cfi_startproc
	endbr64
	pushq	%rbp
	.cfi_def_cfa_offset 16
	.cfi_offset 6, -16
	movq	%rsp, %rbp
	.cfi_def_cfa_register 6
	subq	$32, %rsp
1:	call	*mcount@GOTPCREL(%rip)
	movq	%rdi, -8(%rbp)
	movq	%rsi, -16(%rbp)
	movl	%edx, -20(%rbp)
	.loc 1 196 9
	leaq	.LC111(%rip), %rdi
	call	mk_op@PLT
	.loc 1 196 7
	movq	-8(%rbp), %rdx
	movq	%rax, 64(%rdx)
	.loc 1 201 1
	nop
	leave
	.cfi_def_cfa 7, 8
	ret
	.cfi_endproc
.LFE135:
	.size	yy_7_Op, .-yy_7_Op
	.type	yy_6_Op, @function
yy_6_Op:
.LFB136:
	.loc 1 203 1
	.cfi_startproc
	endbr64
	pushq	%rbp
	.cfi_def_cfa_offset 16
	.cfi_offset 6, -16
	movq	%rsp, %rbp
	.cfi_def_cfa_register 6
	subq	$32, %rsp
1:	call	*mcount@GOTPCREL(%rip)
	movq	%rdi, -8(%rbp)
	movq	%rsi, -16(%rbp)
	movl	%edx, -20(%rbp)
	.loc 1 195 9
	leaq	.LC101(%rip), %rdi
	call	mk_op@PLT
	.loc 1 195 7
	movq	-8(%rbp), %rdx
	movq	%rax, 64(%rdx)
	.loc 1 200 1
	nop
	leave
	.cfi_def_cfa 7, 8
	ret
	.cfi_endproc
.LFE136:
	.size	yy_6_Op, .-yy_6_Op
	.type	yy_5_Op, @function
yy_5_Op:
.LFB137:
	.loc 1 202 1
	.cfi_startproc
	endbr64
	pushq	%rbp
	.cfi_def_cfa_offset 16
	.cfi_offset 6, -16
	movq	%rsp, %rbp
	.cfi_def_cfa_register 6
	subq	$32, %rsp
1:	call	*mcount@GOTPCREL(%rip)
	movq	%rdi, -8(%rbp)
	movq	%rsi, -16(%rbp)
	movl	%edx, -20(%rbp)
	.loc 1 194 9
	leaq	.LC105(%rip), %rdi
	call	mk_op@PLT
	.loc 1 194 7
	movq	-8(%rbp), %rdx
	movq	%rax, 64(%rdx)
	.loc 1 199 1
	nop
	leave
	.cfi_def_cfa 7, 8
	ret
	.cfi_endproc
.LFE137:
	.size	yy_5_Op, .-yy_5_Op
	.type	yy_4_Op, @function
yy_4_Op:
.LFB138:
	.loc 1 201 1
	.cfi_startproc
	endbr64
	pushq	%rbp
	.cfi_def_cfa_offset 16
	.cfi_offset 6, -16
	movq	%rsp, %rbp
	.cfi_def_cfa_register 6
	subq	$32, %rsp
1:	call	*mcount@GOTPCREL(%rip)
	movq	%rdi, -8(%rbp)
	movq	%rsi, -16(%rbp)
	movl	%edx, -20(%rbp)
	.loc 1 193 9
	leaq	.LC109(%rip), %rdi
	call	mk_op@PLT
	.loc 1 193 7
	movq	-8(%rbp), %rdx
	movq	%rax, 64(%rdx)
	.loc 1 198 1
	nop
	leave
	.cfi_def_cfa 7, 8
	ret
	.cfi_endproc
.LFE138:
	.size	yy_4_Op, .-yy_4_Op
	.section	.rodata
.LC112:
	.string	"\342\206\220"
	.text
	.type	yy_3_Op, @function
yy_3_Op:
.LFB139:
	.loc 1 200 1
	.cfi_startproc
	endbr64
	pushq	%rbp
	.cfi_def_cfa_offset 16
	.cfi_offset 6, -16
	movq	%rsp, %rbp
	.cfi_def_cfa_register 6
	subq	$32, %rsp
1:	call	*mcount@GOTPCREL(%rip)
	movq	%rdi, -8(%rbp)
	movq	%rsi, -16(%rbp)
	movl	%edx, -20(%rbp)
	.loc 1 192 9
	leaq	.LC112(%rip), %rdi
	call	mk_op@PLT
	.loc 1 192 7
	movq	-8(%rbp), %rdx
	movq	%rax, 64(%rdx)
	.loc 1 197 1
	nop
	leave
	.cfi_def_cfa 7, 8
	ret
	.cfi_endproc
.LFE139:
	.size	yy_3_Op, .-yy_3_Op
	.section	.rodata
.LC113:
	.string	"\342\206\223"
	.text
	.type	yy_2_Op, @function
yy_2_Op:
.LFB140:
	.loc 1 199 1
	.cfi_startproc
	endbr64
	pushq	%rbp
	.cfi_def_cfa_offset 16
	.cfi_offset 6, -16
	movq	%rsp, %rbp
	.cfi_def_cfa_register 6
	subq	$32, %rsp
1:	call	*mcount@GOTPCREL(%rip)
	movq	%rdi, -8(%rbp)
	movq	%rsi, -16(%rbp)
	movl	%edx, -20(%rbp)
	.loc 1 191 9
	leaq	.LC113(%rip), %rdi
	call	mk_op@PLT
	.loc 1 191 7
	movq	-8(%rbp), %rdx
	movq	%rax, 64(%rdx)
	.loc 1 196 1
	nop
	leave
	.cfi_def_cfa 7, 8
	ret
	.cfi_endproc
.LFE140:
	.size	yy_2_Op, .-yy_2_Op
	.section	.rodata
.LC114:
	.string	"\342\206\221"
	.text
	.type	yy_1_Op, @function
yy_1_Op:
.LFB141:
	.loc 1 198 1
	.cfi_startproc
	endbr64
	pushq	%rbp
	.cfi_def_cfa_offset 16
	.cfi_offset 6, -16
	movq	%rsp, %rbp
	.cfi_def_cfa_register 6
	subq	$32, %rsp
1:	call	*mcount@GOTPCREL(%rip)
	movq	%rdi, -8(%rbp)
	movq	%rsi, -16(%rbp)
	movl	%edx, -20(%rbp)
	.loc 1 190 9
	leaq	.LC114(%rip), %rdi
	call	mk_op@PLT
	.loc 1 190 7
	movq	-8(%rbp), %rdx
	movq	%rax, 64(%rdx)
	.loc 1 195 1
	nop
	leave
	.cfi_def_cfa 7, 8
	ret
	.cfi_endproc
.LFE141:
	.size	yy_1_Op, .-yy_1_Op
	.section	.rodata
.LC115:
	.string	"\316\266"
	.text
	.type	yy_39_Greek, @function
yy_39_Greek:
.LFB142:
	.loc 1 197 1
	.cfi_startproc
	endbr64
	pushq	%rbp
	.cfi_def_cfa_offset 16
	.cfi_offset 6, -16
	movq	%rsp, %rbp
	.cfi_def_cfa_register 6
	subq	$32, %rsp
1:	call	*mcount@GOTPCREL(%rip)
	movq	%rdi, -8(%rbp)
	movq	%rsi, -16(%rbp)
	movl	%edx, -20(%rbp)
	.loc 1 152 9
	leaq	.LC115(%rip), %rdi
	call	mk_id@PLT
	.loc 1 152 7
	movq	-8(%rbp), %rdx
	movq	%rax, 64(%rdx)
	.loc 1 157 1
	nop
	leave
	.cfi_def_cfa 7, 8
	ret
	.cfi_endproc
.LFE142:
	.size	yy_39_Greek, .-yy_39_Greek
	.section	.rodata
.LC116:
	.string	"\316\236"
	.text
	.type	yy_38_Greek, @function
yy_38_Greek:
.LFB143:
	.loc 1 159 1
	.cfi_startproc
	endbr64
	pushq	%rbp
	.cfi_def_cfa_offset 16
	.cfi_offset 6, -16
	movq	%rsp, %rbp
	.cfi_def_cfa_register 6
	subq	$32, %rsp
1:	call	*mcount@GOTPCREL(%rip)
	movq	%rdi, -8(%rbp)
	movq	%rsi, -16(%rbp)
	movl	%edx, -20(%rbp)
	.loc 1 151 9
	leaq	.LC116(%rip), %rdi
	call	mk_id@PLT
	.loc 1 151 7
	movq	-8(%rbp), %rdx
	movq	%rax, 64(%rdx)
	.loc 1 156 1
	nop
	leave
	.cfi_def_cfa 7, 8
	ret
	.cfi_endproc
.LFE143:
	.size	yy_38_Greek, .-yy_38_Greek
	.section	.rodata
.LC117:
	.string	"\316\276"
	.text
	.type	yy_37_Greek, @function
yy_37_Greek:
.LFB144:
	.loc 1 158 1
	.cfi_startproc
	endbr64
	pushq	%rbp
	.cfi_def_cfa_offset 16
	.cfi_offset 6, -16
	movq	%rsp, %rbp
	.cfi_def_cfa_register 6
	subq	$32, %rsp
1:	call	*mcount@GOTPCREL(%rip)
	movq	%rdi, -8(%rbp)
	movq	%rsi, -16(%rbp)
	movl	%edx, -20(%rbp)
	.loc 1 150 9
	leaq	.LC117(%rip), %rdi
	call	mk_id@PLT
	.loc 1 150 7
	movq	-8(%rbp), %rdx
	movq	%rax, 64(%rdx)
	.loc 1 155 1
	nop
	leave
	.cfi_def_cfa 7, 8
	ret
	.cfi_endproc
.LFE144:
	.size	yy_37_Greek, .-yy_37_Greek
	.section	.rodata
.LC118:
	.string	"\317\205"
	.text
	.type	yy_36_Greek, @function
yy_36_Greek:
.LFB145:
	.loc 1 157 1
	.cfi_startproc
	endbr64
	pushq	%rbp
	.cfi_def_cfa_offset 16
	.cfi_offset 6, -16
	movq	%rsp, %rbp
	.cfi_def_cfa_register 6
	subq	$32, %rsp
1:	call	*mcount@GOTPCREL(%rip)
	movq	%rdi, -8(%rbp)
	movq	%rsi, -16(%rbp)
	movl	%edx, -20(%rbp)
	.loc 1 149 9
	leaq	.LC118(%rip), %rdi
	call	mk_id@PLT
	.loc 1 149 7
	movq	-8(%rbp), %rdx
	movq	%rax, 64(%rdx)
	.loc 1 154 1
	nop
	leave
	.cfi_def_cfa 7, 8
	ret
	.cfi_endproc
.LFE145:
	.size	yy_36_Greek, .-yy_36_Greek
	.section	.rodata
.LC119:
	.string	"\316\230"
	.text
	.type	yy_35_Greek, @function
yy_35_Greek:
.LFB146:
	.loc 1 156 1
	.cfi_startproc
	endbr64
	pushq	%rbp
	.cfi_def_cfa_offset 16
	.cfi_offset 6, -16
	movq	%rsp, %rbp
	.cfi_def_cfa_register 6
	subq	$32, %rsp
1:	call	*mcount@GOTPCREL(%rip)
	movq	%rdi, -8(%rbp)
	movq	%rsi, -16(%rbp)
	movl	%edx, -20(%rbp)
	.loc 1 148 9
	leaq	.LC119(%rip), %rdi
	call	mk_id@PLT
	.loc 1 148 7
	movq	-8(%rbp), %rdx
	movq	%rax, 64(%rdx)
	.loc 1 153 1
	nop
	leave
	.cfi_def_cfa 7, 8
	ret
	.cfi_endproc
.LFE146:
	.size	yy_35_Greek, .-yy_35_Greek
	.section	.rodata
.LC120:
	.string	"\317\221"
	.text
	.type	yy_34_Greek, @function
yy_34_Greek:
.LFB147:
	.loc 1 155 1
	.cfi_startproc
	endbr64
	pushq	%rbp
	.cfi_def_cfa_offset 16
	.cfi_offset 6, -16
	movq	%rsp, %rbp
	.cfi_def_cfa_register 6
	subq	$32, %rsp
1:	call	*mcount@GOTPCREL(%rip)
	movq	%rdi, -8(%rbp)
	movq	%rsi, -16(%rbp)
	movl	%edx, -20(%rbp)
	.loc 1 147 9
	leaq	.LC120(%rip), %rdi
	call	mk_id@PLT
	.loc 1 147 7
	movq	-8(%rbp), %rdx
	movq	%rax, 64(%rdx)
	.loc 1 152 1
	nop
	leave
	.cfi_def_cfa 7, 8
	ret
	.cfi_endproc
.LFE147:
	.size	yy_34_Greek, .-yy_34_Greek
	.section	.rodata
.LC121:
	.string	"\316\270"
	.text
	.type	yy_33_Greek, @function
yy_33_Greek:
.LFB148:
	.loc 1 154 1
	.cfi_startproc
	endbr64
	pushq	%rbp
	.cfi_def_cfa_offset 16
	.cfi_offset 6, -16
	movq	%rsp, %rbp
	.cfi_def_cfa_register 6
	subq	$32, %rsp
1:	call	*mcount@GOTPCREL(%rip)
	movq	%rdi, -8(%rbp)
	movq	%rsi, -16(%rbp)
	movl	%edx, -20(%rbp)
	.loc 1 146 9
	leaq	.LC121(%rip), %rdi
	call	mk_id@PLT
	.loc 1 146 7
	movq	-8(%rbp), %rdx
	movq	%rax, 64(%rdx)
	.loc 1 151 1
	nop
	leave
	.cfi_def_cfa 7, 8
	ret
	.cfi_endproc
.LFE148:
	.size	yy_33_Greek, .-yy_33_Greek
	.section	.rodata
.LC122:
	.string	"\317\204"
	.text
	.type	yy_32_Greek, @function
yy_32_Greek:
.LFB149:
	.loc 1 153 1
	.cfi_startproc
	endbr64
	pushq	%rbp
	.cfi_def_cfa_offset 16
	.cfi_offset 6, -16
	movq	%rsp, %rbp
	.cfi_def_cfa_register 6
	subq	$32, %rsp
1:	call	*mcount@GOTPCREL(%rip)
	movq	%rdi, -8(%rbp)
	movq	%rsi, -16(%rbp)
	movl	%edx, -20(%rbp)
	.loc 1 145 9
	leaq	.LC122(%rip), %rdi
	call	mk_id@PLT
	.loc 1 145 7
	movq	-8(%rbp), %rdx
	movq	%rax, 64(%rdx)
	.loc 1 150 1
	nop
	leave
	.cfi_def_cfa 7, 8
	ret
	.cfi_endproc
.LFE149:
	.size	yy_32_Greek, .-yy_32_Greek
	.type	yy_31_Greek, @function
yy_31_Greek:
.LFB150:
	.loc 1 152 1
	.cfi_startproc
	endbr64
	pushq	%rbp
	.cfi_def_cfa_offset 16
	.cfi_offset 6, -16
	movq	%rsp, %rbp
	.cfi_def_cfa_register 6
	subq	$32, %rsp
1:	call	*mcount@GOTPCREL(%rip)
	movq	%rdi, -8(%rbp)
	movq	%rsi, -16(%rbp)
	movl	%edx, -20(%rbp)
	.loc 1 144 9
	leaq	.LC31(%rip), %rdi
	call	mk_id@PLT
	.loc 1 144 7
	movq	-8(%rbp), %rdx
	movq	%rax, 64(%rdx)
	.loc 1 149 1
	nop
	leave
	.cfi_def_cfa 7, 8
	ret
	.cfi_endproc
.LFE150:
	.size	yy_31_Greek, .-yy_31_Greek
	.section	.rodata
.LC123:
	.string	"\317\203"
	.text
	.type	yy_30_Greek, @function
yy_30_Greek:
.LFB151:
	.loc 1 151 1
	.cfi_startproc
	endbr64
	pushq	%rbp
	.cfi_def_cfa_offset 16
	.cfi_offset 6, -16
	movq	%rsp, %rbp
	.cfi_def_cfa_register 6
	subq	$32, %rsp
1:	call	*mcount@GOTPCREL(%rip)
	movq	%rdi, -8(%rbp)
	movq	%rsi, -16(%rbp)
	movl	%edx, -20(%rbp)
	.loc 1 143 9
	leaq	.LC123(%rip), %rdi
	call	mk_id@PLT
	.loc 1 143 7
	movq	-8(%rbp), %rdx
	movq	%rax, 64(%rdx)
	.loc 1 148 1
	nop
	leave
	.cfi_def_cfa 7, 8
	ret
	.cfi_endproc
.LFE151:
	.size	yy_30_Greek, .-yy_30_Greek
	.section	.rodata
.LC124:
	.string	"\317\201"
	.text
	.type	yy_29_Greek, @function
yy_29_Greek:
.LFB152:
	.loc 1 150 1
	.cfi_startproc
	endbr64
	pushq	%rbp
	.cfi_def_cfa_offset 16
	.cfi_offset 6, -16
	movq	%rsp, %rbp
	.cfi_def_cfa_register 6
	subq	$32, %rsp
1:	call	*mcount@GOTPCREL(%rip)
	movq	%rdi, -8(%rbp)
	movq	%rsi, -16(%rbp)
	movl	%edx, -20(%rbp)
	.loc 1 142 9
	leaq	.LC124(%rip), %rdi
	call	mk_id@PLT
	.loc 1 142 7
	movq	-8(%rbp), %rdx
	movq	%rax, 64(%rdx)
	.loc 1 147 1
	nop
	leave
	.cfi_def_cfa 7, 8
	ret
	.cfi_endproc
.LFE152:
	.size	yy_29_Greek, .-yy_29_Greek
	.section	.rodata
.LC125:
	.string	"\316\250"
	.text
	.type	yy_28_Greek, @function
yy_28_Greek:
.LFB153:
	.loc 1 149 1
	.cfi_startproc
	endbr64
	pushq	%rbp
	.cfi_def_cfa_offset 16
	.cfi_offset 6, -16
	movq	%rsp, %rbp
	.cfi_def_cfa_register 6
	subq	$32, %rsp
1:	call	*mcount@GOTPCREL(%rip)
	movq	%rdi, -8(%rbp)
	movq	%rsi, -16(%rbp)
	movl	%edx, -20(%rbp)
	.loc 1 141 9
	leaq	.LC125(%rip), %rdi
	call	mk_id@PLT
	.loc 1 141 7
	movq	-8(%rbp), %rdx
	movq	%rax, 64(%rdx)
	.loc 1 146 1
	nop
	leave
	.cfi_def_cfa 7, 8
	ret
	.cfi_endproc
.LFE153:
	.size	yy_28_Greek, .-yy_28_Greek
	.section	.rodata
.LC126:
	.string	"\317\210"
	.text
	.type	yy_27_Greek, @function
yy_27_Greek:
.LFB154:
	.loc 1 148 1
	.cfi_startproc
	endbr64
	pushq	%rbp
	.cfi_def_cfa_offset 16
	.cfi_offset 6, -16
	movq	%rsp, %rbp
	.cfi_def_cfa_register 6
	subq	$32, %rsp
1:	call	*mcount@GOTPCREL(%rip)
	movq	%rdi, -8(%rbp)
	movq	%rsi, -16(%rbp)
	movl	%edx, -20(%rbp)
	.loc 1 140 9
	leaq	.LC126(%rip), %rdi
	call	mk_id@PLT
	.loc 1 140 7
	movq	-8(%rbp), %rdx
	movq	%rax, 64(%rdx)
	.loc 1 145 1
	nop
	leave
	.cfi_def_cfa 7, 8
	ret
	.cfi_endproc
.LFE154:
	.size	yy_27_Greek, .-yy_27_Greek
	.type	yy_26_Greek, @function
yy_26_Greek:
.LFB155:
	.loc 1 147 1
	.cfi_startproc
	endbr64
	pushq	%rbp
	.cfi_def_cfa_offset 16
	.cfi_offset 6, -16
	movq	%rsp, %rbp
	.cfi_def_cfa_register 6
	subq	$32, %rsp
1:	call	*mcount@GOTPCREL(%rip)
	movq	%rdi, -8(%rbp)
	movq	%rsi, -16(%rbp)
	movl	%edx, -20(%rbp)
	.loc 1 139 9
	leaq	.LC30(%rip), %rdi
	call	mk_id@PLT
	.loc 1 139 7
	movq	-8(%rbp), %rdx
	movq	%rax, 64(%rdx)
	.loc 1 144 1
	nop
	leave
	.cfi_def_cfa 7, 8
	ret
	.cfi_endproc
.LFE155:
	.size	yy_26_Greek, .-yy_26_Greek
	.section	.rodata
.LC127:
	.string	"\317\200"
	.text
	.type	yy_25_Greek, @function
yy_25_Greek:
.LFB156:
	.loc 1 146 1
	.cfi_startproc
	endbr64
	pushq	%rbp
	.cfi_def_cfa_offset 16
	.cfi_offset 6, -16
	movq	%rsp, %rbp
	.cfi_def_cfa_register 6
	subq	$32, %rsp
1:	call	*mcount@GOTPCREL(%rip)
	movq	%rdi, -8(%rbp)
	movq	%rsi, -16(%rbp)
	movl	%edx, -20(%rbp)
	.loc 1 138 9
	leaq	.LC127(%rip), %rdi
	call	mk_id@PLT
	.loc 1 138 7
	movq	-8(%rbp), %rdx
	movq	%rax, 64(%rdx)
	.loc 1 143 1
	nop
	leave
	.cfi_def_cfa 7, 8
	ret
	.cfi_endproc
.LFE156:
	.size	yy_25_Greek, .-yy_25_Greek
	.section	.rodata
.LC128:
	.string	"\316\246"
	.text
	.type	yy_24_Greek, @function
yy_24_Greek:
.LFB157:
	.loc 1 145 1
	.cfi_startproc
	endbr64
	pushq	%rbp
	.cfi_def_cfa_offset 16
	.cfi_offset 6, -16
	movq	%rsp, %rbp
	.cfi_def_cfa_register 6
	subq	$32, %rsp
1:	call	*mcount@GOTPCREL(%rip)
	movq	%rdi, -8(%rbp)
	movq	%rsi, -16(%rbp)
	movl	%edx, -20(%rbp)
	.loc 1 137 9
	leaq	.LC128(%rip), %rdi
	call	mk_id@PLT
	.loc 1 137 7
	movq	-8(%rbp), %rdx
	movq	%rax, 64(%rdx)
	.loc 1 142 1
	nop
	leave
	.cfi_def_cfa 7, 8
	ret
	.cfi_endproc
.LFE157:
	.size	yy_24_Greek, .-yy_24_Greek
	.section	.rodata
.LC129:
	.string	"\317\206"
	.text
	.type	yy_23_Greek, @function
yy_23_Greek:
.LFB158:
	.loc 1 144 1
	.cfi_startproc
	endbr64
	pushq	%rbp
	.cfi_def_cfa_offset 16
	.cfi_offset 6, -16
	movq	%rsp, %rbp
	.cfi_def_cfa_register 6
	subq	$32, %rsp
1:	call	*mcount@GOTPCREL(%rip)
	movq	%rdi, -8(%rbp)
	movq	%rsi, -16(%rbp)
	movl	%edx, -20(%rbp)
	.loc 1 136 9
	leaq	.LC129(%rip), %rdi
	call	mk_id@PLT
	.loc 1 136 7
	movq	-8(%rbp), %rdx
	movq	%rax, 64(%rdx)
	.loc 1 141 1
	nop
	leave
	.cfi_def_cfa 7, 8
	ret
	.cfi_endproc
.LFE158:
	.size	yy_23_Greek, .-yy_23_Greek
	.type	yy_22_Greek, @function
yy_22_Greek:
.LFB159:
	.loc 1 143 1
	.cfi_startproc
	endbr64
	pushq	%rbp
	.cfi_def_cfa_offset 16
	.cfi_offset 6, -16
	movq	%rsp, %rbp
	.cfi_def_cfa_register 6
	subq	$32, %rsp
1:	call	*mcount@GOTPCREL(%rip)
	movq	%rdi, -8(%rbp)
	movq	%rsi, -16(%rbp)
	movl	%edx, -20(%rbp)
	.loc 1 135 9
	leaq	.LC129(%rip), %rdi
	call	mk_id@PLT
	.loc 1 135 7
	movq	-8(%rbp), %rdx
	movq	%rax, 64(%rdx)
	.loc 1 140 1
	nop
	leave
	.cfi_def_cfa 7, 8
	ret
	.cfi_endproc
.LFE159:
	.size	yy_22_Greek, .-yy_22_Greek
	.section	.rodata
.LC130:
	.string	"\316\251"
	.text
	.type	yy_21_Greek, @function
yy_21_Greek:
.LFB160:
	.loc 1 142 1
	.cfi_startproc
	endbr64
	pushq	%rbp
	.cfi_def_cfa_offset 16
	.cfi_offset 6, -16
	movq	%rsp, %rbp
	.cfi_def_cfa_register 6
	subq	$32, %rsp
1:	call	*mcount@GOTPCREL(%rip)
	movq	%rdi, -8(%rbp)
	movq	%rsi, -16(%rbp)
	movl	%edx, -20(%rbp)
	.loc 1 134 9
	leaq	.LC130(%rip), %rdi
	call	mk_id@PLT
	.loc 1 134 7
	movq	-8(%rbp), %rdx
	movq	%rax, 64(%rdx)
	.loc 1 139 1
	nop
	leave
	.cfi_def_cfa 7, 8
	ret
	.cfi_endproc
.LFE160:
	.size	yy_21_Greek, .-yy_21_Greek
	.section	.rodata
.LC131:
	.string	"\317\211"
	.text
	.type	yy_20_Greek, @function
yy_20_Greek:
.LFB161:
	.loc 1 141 1
	.cfi_startproc
	endbr64
	pushq	%rbp
	.cfi_def_cfa_offset 16
	.cfi_offset 6, -16
	movq	%rsp, %rbp
	.cfi_def_cfa_register 6
	subq	$32, %rsp
1:	call	*mcount@GOTPCREL(%rip)
	movq	%rdi, -8(%rbp)
	movq	%rsi, -16(%rbp)
	movl	%edx, -20(%rbp)
	.loc 1 133 9
	leaq	.LC131(%rip), %rdi
	call	mk_id@PLT
	.loc 1 133 7
	movq	-8(%rbp), %rdx
	movq	%rax, 64(%rdx)
	.loc 1 138 1
	nop
	leave
	.cfi_def_cfa 7, 8
	ret
	.cfi_endproc
.LFE161:
	.size	yy_20_Greek, .-yy_20_Greek
	.section	.rodata
.LC132:
	.string	"\316\275"
	.text
	.type	yy_19_Greek, @function
yy_19_Greek:
.LFB162:
	.loc 1 140 1
	.cfi_startproc
	endbr64
	pushq	%rbp
	.cfi_def_cfa_offset 16
	.cfi_offset 6, -16
	movq	%rsp, %rbp
	.cfi_def_cfa_register 6
	subq	$32, %rsp
1:	call	*mcount@GOTPCREL(%rip)
	movq	%rdi, -8(%rbp)
	movq	%rsi, -16(%rbp)
	movl	%edx, -20(%rbp)
	.loc 1 132 9
	leaq	.LC132(%rip), %rdi
	call	mk_id@PLT
	.loc 1 132 7
	movq	-8(%rbp), %rdx
	movq	%rax, 64(%rdx)
	.loc 1 137 1
	nop
	leave
	.cfi_def_cfa 7, 8
	ret
	.cfi_endproc
.LFE162:
	.size	yy_19_Greek, .-yy_19_Greek
	.section	.rodata
.LC133:
	.string	"\316\274"
	.text
	.type	yy_18_Greek, @function
yy_18_Greek:
.LFB163:
	.loc 1 139 1
	.cfi_startproc
	endbr64
	pushq	%rbp
	.cfi_def_cfa_offset 16
	.cfi_offset 6, -16
	movq	%rsp, %rbp
	.cfi_def_cfa_register 6
	subq	$32, %rsp
1:	call	*mcount@GOTPCREL(%rip)
	movq	%rdi, -8(%rbp)
	movq	%rsi, -16(%rbp)
	movl	%edx, -20(%rbp)
	.loc 1 131 9
	leaq	.LC133(%rip), %rdi
	call	mk_id@PLT
	.loc 1 131 7
	movq	-8(%rbp), %rdx
	movq	%rax, 64(%rdx)
	.loc 1 136 1
	nop
	leave
	.cfi_def_cfa 7, 8
	ret
	.cfi_endproc
.LFE163:
	.size	yy_18_Greek, .-yy_18_Greek
	.section	.rodata
.LC134:
	.string	"\316\233"
	.text
	.type	yy_17_Greek, @function
yy_17_Greek:
.LFB164:
	.loc 1 138 1
	.cfi_startproc
	endbr64
	pushq	%rbp
	.cfi_def_cfa_offset 16
	.cfi_offset 6, -16
	movq	%rsp, %rbp
	.cfi_def_cfa_register 6
	subq	$32, %rsp
1:	call	*mcount@GOTPCREL(%rip)
	movq	%rdi, -8(%rbp)
	movq	%rsi, -16(%rbp)
	movl	%edx, -20(%rbp)
	.loc 1 130 9
	leaq	.LC134(%rip), %rdi
	call	mk_id@PLT
	.loc 1 130 7
	movq	-8(%rbp), %rdx
	movq	%rax, 64(%rdx)
	.loc 1 135 1
	nop
	leave
	.cfi_def_cfa 7, 8
	ret
	.cfi_endproc
.LFE164:
	.size	yy_17_Greek, .-yy_17_Greek
	.section	.rodata
.LC135:
	.string	"\316\273"
	.text
	.type	yy_16_Greek, @function
yy_16_Greek:
.LFB165:
	.loc 1 137 1
	.cfi_startproc
	endbr64
	pushq	%rbp
	.cfi_def_cfa_offset 16
	.cfi_offset 6, -16
	movq	%rsp, %rbp
	.cfi_def_cfa_register 6
	subq	$32, %rsp
1:	call	*mcount@GOTPCREL(%rip)
	movq	%rdi, -8(%rbp)
	movq	%rsi, -16(%rbp)
	movl	%edx, -20(%rbp)
	.loc 1 129 9
	leaq	.LC135(%rip), %rdi
	call	mk_id@PLT
	.loc 1 129 7
	movq	-8(%rbp), %rdx
	movq	%rax, 64(%rdx)
	.loc 1 134 1
	nop
	leave
	.cfi_def_cfa 7, 8
	ret
	.cfi_endproc
.LFE165:
	.size	yy_16_Greek, .-yy_16_Greek
	.type	yy_15_Greek, @function
yy_15_Greek:
.LFB166:
	.loc 1 136 1
	.cfi_startproc
	endbr64
	pushq	%rbp
	.cfi_def_cfa_offset 16
	.cfi_offset 6, -16
	movq	%rsp, %rbp
	.cfi_def_cfa_register 6
	subq	$32, %rsp
1:	call	*mcount@GOTPCREL(%rip)
	movq	%rdi, -8(%rbp)
	movq	%rsi, -16(%rbp)
	movl	%edx, -20(%rbp)
	.loc 1 128 9
	leaq	.LC134(%rip), %rdi
	call	mk_id@PLT
	.loc 1 128 7
	movq	-8(%rbp), %rdx
	movq	%rax, 64(%rdx)
	.loc 1 133 1
	nop
	leave
	.cfi_def_cfa 7, 8
	ret
	.cfi_endproc
.LFE166:
	.size	yy_15_Greek, .-yy_15_Greek
	.type	yy_14_Greek, @function
yy_14_Greek:
.LFB167:
	.loc 1 135 1
	.cfi_startproc
	endbr64
	pushq	%rbp
	.cfi_def_cfa_offset 16
	.cfi_offset 6, -16
	movq	%rsp, %rbp
	.cfi_def_cfa_register 6
	subq	$32, %rsp
1:	call	*mcount@GOTPCREL(%rip)
	movq	%rdi, -8(%rbp)
	movq	%rsi, -16(%rbp)
	movl	%edx, -20(%rbp)
	.loc 1 127 9
	leaq	.LC135(%rip), %rdi
	call	mk_id@PLT
	.loc 1 127 7
	movq	-8(%rbp), %rdx
	movq	%rax, 64(%rdx)
	.loc 1 132 1
	nop
	leave
	.cfi_def_cfa 7, 8
	ret
	.cfi_endproc
.LFE167:
	.size	yy_14_Greek, .-yy_14_Greek
	.section	.rodata
.LC136:
	.string	"\316\272"
	.text
	.type	yy_13_Greek, @function
yy_13_Greek:
.LFB168:
	.loc 1 134 1
	.cfi_startproc
	endbr64
	pushq	%rbp
	.cfi_def_cfa_offset 16
	.cfi_offset 6, -16
	movq	%rsp, %rbp
	.cfi_def_cfa_register 6
	subq	$32, %rsp
1:	call	*mcount@GOTPCREL(%rip)
	movq	%rdi, -8(%rbp)
	movq	%rsi, -16(%rbp)
	movl	%edx, -20(%rbp)
	.loc 1 126 9
	leaq	.LC136(%rip), %rdi
	call	mk_id@PLT
	.loc 1 126 7
	movq	-8(%rbp), %rdx
	movq	%rax, 64(%rdx)
	.loc 1 131 1
	nop
	leave
	.cfi_def_cfa 7, 8
	ret
	.cfi_endproc
.LFE168:
	.size	yy_13_Greek, .-yy_13_Greek
	.section	.rodata
.LC137:
	.string	"\316\271"
	.text
	.type	yy_12_Greek, @function
yy_12_Greek:
.LFB169:
	.loc 1 133 1
	.cfi_startproc
	endbr64
	pushq	%rbp
	.cfi_def_cfa_offset 16
	.cfi_offset 6, -16
	movq	%rsp, %rbp
	.cfi_def_cfa_register 6
	subq	$32, %rsp
1:	call	*mcount@GOTPCREL(%rip)
	movq	%rdi, -8(%rbp)
	movq	%rsi, -16(%rbp)
	movl	%edx, -20(%rbp)
	.loc 1 125 9
	leaq	.LC137(%rip), %rdi
	call	mk_id@PLT
	.loc 1 125 7
	movq	-8(%rbp), %rdx
	movq	%rax, 64(%rdx)
	.loc 1 130 1
	nop
	leave
	.cfi_def_cfa 7, 8
	ret
	.cfi_endproc
.LFE169:
	.size	yy_12_Greek, .-yy_12_Greek
	.section	.rodata
.LC138:
	.string	"\316\223"
	.text
	.type	yy_11_Greek, @function
yy_11_Greek:
.LFB170:
	.loc 1 132 1
	.cfi_startproc
	endbr64
	pushq	%rbp
	.cfi_def_cfa_offset 16
	.cfi_offset 6, -16
	movq	%rsp, %rbp
	.cfi_def_cfa_register 6
	subq	$32, %rsp
1:	call	*mcount@GOTPCREL(%rip)
	movq	%rdi, -8(%rbp)
	movq	%rsi, -16(%rbp)
	movl	%edx, -20(%rbp)
	.loc 1 124 9
	leaq	.LC138(%rip), %rdi
	call	mk_id@PLT
	.loc 1 124 7
	movq	-8(%rbp), %rdx
	movq	%rax, 64(%rdx)
	.loc 1 129 1
	nop
	leave
	.cfi_def_cfa 7, 8
	ret
	.cfi_endproc
.LFE170:
	.size	yy_11_Greek, .-yy_11_Greek
	.section	.rodata
.LC139:
	.string	"\316\263"
	.text
	.type	yy_10_Greek, @function
yy_10_Greek:
.LFB171:
	.loc 1 131 1
	.cfi_startproc
	endbr64
	pushq	%rbp
	.cfi_def_cfa_offset 16
	.cfi_offset 6, -16
	movq	%rsp, %rbp
	.cfi_def_cfa_register 6
	subq	$32, %rsp
1:	call	*mcount@GOTPCREL(%rip)
	movq	%rdi, -8(%rbp)
	movq	%rsi, -16(%rbp)
	movl	%edx, -20(%rbp)
	.loc 1 123 9
	leaq	.LC139(%rip), %rdi
	call	mk_id@PLT
	.loc 1 123 7
	movq	-8(%rbp), %rdx
	movq	%rax, 64(%rdx)
	.loc 1 128 1
	nop
	leave
	.cfi_def_cfa 7, 8
	ret
	.cfi_endproc
.LFE171:
	.size	yy_10_Greek, .-yy_10_Greek
	.section	.rodata
.LC140:
	.string	"\316\267"
	.text
	.type	yy_9_Greek, @function
yy_9_Greek:
.LFB172:
	.loc 1 130 1
	.cfi_startproc
	endbr64
	pushq	%rbp
	.cfi_def_cfa_offset 16
	.cfi_offset 6, -16
	movq	%rsp, %rbp
	.cfi_def_cfa_register 6
	subq	$32, %rsp
1:	call	*mcount@GOTPCREL(%rip)
	movq	%rdi, -8(%rbp)
	movq	%rsi, -16(%rbp)
	movl	%edx, -20(%rbp)
	.loc 1 122 9
	leaq	.LC140(%rip), %rdi
	call	mk_id@PLT
	.loc 1 122 7
	movq	-8(%rbp), %rdx
	movq	%rax, 64(%rdx)
	.loc 1 127 1
	nop
	leave
	.cfi_def_cfa 7, 8
	ret
	.cfi_endproc
.LFE172:
	.size	yy_9_Greek, .-yy_9_Greek
	.section	.rodata
.LC141:
	.string	"\316\265"
	.text
	.type	yy_8_Greek, @function
yy_8_Greek:
.LFB173:
	.loc 1 129 1
	.cfi_startproc
	endbr64
	pushq	%rbp
	.cfi_def_cfa_offset 16
	.cfi_offset 6, -16
	movq	%rsp, %rbp
	.cfi_def_cfa_register 6
	subq	$32, %rsp
1:	call	*mcount@GOTPCREL(%rip)
	movq	%rdi, -8(%rbp)
	movq	%rsi, -16(%rbp)
	movl	%edx, -20(%rbp)
	.loc 1 121 9
	leaq	.LC141(%rip), %rdi
	call	mk_id@PLT
	.loc 1 121 7
	movq	-8(%rbp), %rdx
	movq	%rax, 64(%rdx)
	.loc 1 126 1
	nop
	leave
	.cfi_def_cfa 7, 8
	ret
	.cfi_endproc
.LFE173:
	.size	yy_8_Greek, .-yy_8_Greek
	.type	yy_7_Greek, @function
yy_7_Greek:
.LFB174:
	.loc 1 128 1
	.cfi_startproc
	endbr64
	pushq	%rbp
	.cfi_def_cfa_offset 16
	.cfi_offset 6, -16
	movq	%rsp, %rbp
	.cfi_def_cfa_register 6
	subq	$32, %rsp
1:	call	*mcount@GOTPCREL(%rip)
	movq	%rdi, -8(%rbp)
	movq	%rsi, -16(%rbp)
	movl	%edx, -20(%rbp)
	.loc 1 120 9
	leaq	.LC141(%rip), %rdi
	call	mk_id@PLT
	.loc 1 120 7
	movq	-8(%rbp), %rdx
	movq	%rax, 64(%rdx)
	.loc 1 125 1
	nop
	leave
	.cfi_def_cfa 7, 8
	ret
	.cfi_endproc
.LFE174:
	.size	yy_7_Greek, .-yy_7_Greek
	.type	yy_6_Greek, @function
yy_6_Greek:
.LFB175:
	.loc 1 127 1
	.cfi_startproc
	endbr64
	pushq	%rbp
	.cfi_def_cfa_offset 16
	.cfi_offset 6, -16
	movq	%rsp, %rbp
	.cfi_def_cfa_register 6
	subq	$32, %rsp
1:	call	*mcount@GOTPCREL(%rip)
	movq	%rdi, -8(%rbp)
	movq	%rsi, -16(%rbp)
	movl	%edx, -20(%rbp)
	.loc 1 119 9
	leaq	.LC141(%rip), %rdi
	call	mk_id@PLT
	.loc 1 119 7
	movq	-8(%rbp), %rdx
	movq	%rax, 64(%rdx)
	.loc 1 124 1
	nop
	leave
	.cfi_def_cfa 7, 8
	ret
	.cfi_endproc
.LFE175:
	.size	yy_6_Greek, .-yy_6_Greek
	.section	.rodata
.LC142:
	.string	"\316\224"
	.text
	.type	yy_5_Greek, @function
yy_5_Greek:
.LFB176:
	.loc 1 126 1
	.cfi_startproc
	endbr64
	pushq	%rbp
	.cfi_def_cfa_offset 16
	.cfi_offset 6, -16
	movq	%rsp, %rbp
	.cfi_def_cfa_register 6
	subq	$32, %rsp
1:	call	*mcount@GOTPCREL(%rip)
	movq	%rdi, -8(%rbp)
	movq	%rsi, -16(%rbp)
	movl	%edx, -20(%rbp)
	.loc 1 118 9
	leaq	.LC142(%rip), %rdi
	call	mk_id@PLT
	.loc 1 118 7
	movq	-8(%rbp), %rdx
	movq	%rax, 64(%rdx)
	.loc 1 123 1
	nop
	leave
	.cfi_def_cfa 7, 8
	ret
	.cfi_endproc
.LFE176:
	.size	yy_5_Greek, .-yy_5_Greek
	.section	.rodata
.LC143:
	.string	"\316\264"
	.text
	.type	yy_4_Greek, @function
yy_4_Greek:
.LFB177:
	.loc 1 125 1
	.cfi_startproc
	endbr64
	pushq	%rbp
	.cfi_def_cfa_offset 16
	.cfi_offset 6, -16
	movq	%rsp, %rbp
	.cfi_def_cfa_register 6
	subq	$32, %rsp
1:	call	*mcount@GOTPCREL(%rip)
	movq	%rdi, -8(%rbp)
	movq	%rsi, -16(%rbp)
	movl	%edx, -20(%rbp)
	.loc 1 117 9
	leaq	.LC143(%rip), %rdi
	call	mk_id@PLT
	.loc 1 117 7
	movq	-8(%rbp), %rdx
	movq	%rax, 64(%rdx)
	.loc 1 122 1
	nop
	leave
	.cfi_def_cfa 7, 8
	ret
	.cfi_endproc
.LFE177:
	.size	yy_4_Greek, .-yy_4_Greek
	.section	.rodata
.LC144:
	.string	"\317\207"
	.text
	.type	yy_3_Greek, @function
yy_3_Greek:
.LFB178:
	.loc 1 124 1
	.cfi_startproc
	endbr64
	pushq	%rbp
	.cfi_def_cfa_offset 16
	.cfi_offset 6, -16
	movq	%rsp, %rbp
	.cfi_def_cfa_register 6
	subq	$32, %rsp
1:	call	*mcount@GOTPCREL(%rip)
	movq	%rdi, -8(%rbp)
	movq	%rsi, -16(%rbp)
	movl	%edx, -20(%rbp)
	.loc 1 116 9
	leaq	.LC144(%rip), %rdi
	call	mk_id@PLT
	.loc 1 116 7
	movq	-8(%rbp), %rdx
	movq	%rax, 64(%rdx)
	.loc 1 121 1
	nop
	leave
	.cfi_def_cfa 7, 8
	ret
	.cfi_endproc
.LFE178:
	.size	yy_3_Greek, .-yy_3_Greek
	.section	.rodata
.LC145:
	.string	"\316\262"
	.text
	.type	yy_2_Greek, @function
yy_2_Greek:
.LFB179:
	.loc 1 123 1
	.cfi_startproc
	endbr64
	pushq	%rbp
	.cfi_def_cfa_offset 16
	.cfi_offset 6, -16
	movq	%rsp, %rbp
	.cfi_def_cfa_register 6
	subq	$32, %rsp
1:	call	*mcount@GOTPCREL(%rip)
	movq	%rdi, -8(%rbp)
	movq	%rsi, -16(%rbp)
	movl	%edx, -20(%rbp)
	.loc 1 115 9
	leaq	.LC145(%rip), %rdi
	call	mk_id@PLT
	.loc 1 115 7
	movq	-8(%rbp), %rdx
	movq	%rax, 64(%rdx)
	.loc 1 120 1
	nop
	leave
	.cfi_def_cfa 7, 8
	ret
	.cfi_endproc
.LFE179:
	.size	yy_2_Greek, .-yy_2_Greek
	.section	.rodata
.LC146:
	.string	"\316\261"
	.text
	.type	yy_1_Greek, @function
yy_1_Greek:
.LFB180:
	.loc 1 122 1
	.cfi_startproc
	endbr64
	pushq	%rbp
	.cfi_def_cfa_offset 16
	.cfi_offset 6, -16
	movq	%rsp, %rbp
	.cfi_def_cfa_register 6
	subq	$32, %rsp
1:	call	*mcount@GOTPCREL(%rip)
	movq	%rdi, -8(%rbp)
	movq	%rsi, -16(%rbp)
	movl	%edx, -20(%rbp)
	.loc 1 114 9
	leaq	.LC146(%rip), %rdi
	call	mk_id@PLT
	.loc 1 114 7
	movq	-8(%rbp), %rdx
	movq	%rax, 64(%rdx)
	.loc 1 119 1
	nop
	leave
	.cfi_def_cfa 7, 8
	ret
	.cfi_endproc
.LFE180:
	.size	yy_1_Greek, .-yy_1_Greek
	.section	.rodata
.LC147:
	.string	"}"
	.text
	.type	yy_6_Right, @function
yy_6_Right:
.LFB181:
	.loc 1 121 1
	.cfi_startproc
	endbr64
	pushq	%rbp
	.cfi_def_cfa_offset 16
	.cfi_offset 6, -16
	movq	%rsp, %rbp
	.cfi_def_cfa_register 6
	subq	$32, %rsp
1:	call	*mcount@GOTPCREL(%rip)
	movq	%rdi, -8(%rbp)
	movq	%rsi, -16(%rbp)
	movl	%edx, -20(%rbp)
	.loc 1 112 9
	leaq	.LC147(%rip), %rdi
	call	mk_str@PLT
	.loc 1 112 7
	movq	-8(%rbp), %rdx
	movq	%rax, 64(%rdx)
	.loc 1 117 1
	nop
	leave
	.cfi_def_cfa 7, 8
	ret
	.cfi_endproc
.LFE181:
	.size	yy_6_Right, .-yy_6_Right
	.section	.rodata
.LC148:
	.string	"]"
	.text
	.type	yy_5_Right, @function
yy_5_Right:
.LFB182:
	.loc 1 119 1
	.cfi_startproc
	endbr64
	pushq	%rbp
	.cfi_def_cfa_offset 16
	.cfi_offset 6, -16
	movq	%rsp, %rbp
	.cfi_def_cfa_register 6
	subq	$32, %rsp
1:	call	*mcount@GOTPCREL(%rip)
	movq	%rdi, -8(%rbp)
	movq	%rsi, -16(%rbp)
	movl	%edx, -20(%rbp)
	.loc 1 111 9
	leaq	.LC148(%rip), %rdi
	call	mk_str@PLT
	.loc 1 111 7
	movq	-8(%rbp), %rdx
	movq	%rax, 64(%rdx)
	.loc 1 116 1
	nop
	leave
	.cfi_def_cfa 7, 8
	ret
	.cfi_endproc
.LFE182:
	.size	yy_5_Right, .-yy_5_Right
	.section	.rodata
.LC149:
	.string	")"
	.text
	.type	yy_4_Right, @function
yy_4_Right:
.LFB183:
	.loc 1 118 1
	.cfi_startproc
	endbr64
	pushq	%rbp
	.cfi_def_cfa_offset 16
	.cfi_offset 6, -16
	movq	%rsp, %rbp
	.cfi_def_cfa_register 6
	subq	$32, %rsp
1:	call	*mcount@GOTPCREL(%rip)
	movq	%rdi, -8(%rbp)
	movq	%rsi, -16(%rbp)
	movl	%edx, -20(%rbp)
	.loc 1 110 9
	leaq	.LC149(%rip), %rdi
	call	mk_str@PLT
	.loc 1 110 7
	movq	-8(%rbp), %rdx
	movq	%rax, 64(%rdx)
	.loc 1 115 1
	nop
	leave
	.cfi_def_cfa 7, 8
	ret
	.cfi_endproc
.LFE183:
	.size	yy_4_Right, .-yy_4_Right
	.section	.rodata
.LC150:
	.string	"\342\237\251"
	.text
	.type	yy_3_Right, @function
yy_3_Right:
.LFB184:
	.loc 1 117 1
	.cfi_startproc
	endbr64
	pushq	%rbp
	.cfi_def_cfa_offset 16
	.cfi_offset 6, -16
	movq	%rsp, %rbp
	.cfi_def_cfa_register 6
	subq	$32, %rsp
1:	call	*mcount@GOTPCREL(%rip)
	movq	%rdi, -8(%rbp)
	movq	%rsi, -16(%rbp)
	movl	%edx, -20(%rbp)
	.loc 1 109 9
	leaq	.LC150(%rip), %rdi
	call	mk_str@PLT
	.loc 1 109 7
	movq	-8(%rbp), %rdx
	movq	%rax, 64(%rdx)
	.loc 1 114 1
	nop
	leave
	.cfi_def_cfa 7, 8
	ret
	.cfi_endproc
.LFE184:
	.size	yy_3_Right, .-yy_3_Right
	.type	yy_2_Right, @function
yy_2_Right:
.LFB185:
	.loc 1 116 1
	.cfi_startproc
	endbr64
	pushq	%rbp
	.cfi_def_cfa_offset 16
	.cfi_offset 6, -16
	movq	%rsp, %rbp
	.cfi_def_cfa_register 6
	subq	$32, %rsp
1:	call	*mcount@GOTPCREL(%rip)
	movq	%rdi, -8(%rbp)
	movq	%rsi, -16(%rbp)
	movl	%edx, -20(%rbp)
	.loc 1 108 9
	leaq	.LC150(%rip), %rdi
	call	mk_str@PLT
	.loc 1 108 7
	movq	-8(%rbp), %rdx
	movq	%rax, 64(%rdx)
	.loc 1 113 1
	nop
	leave
	.cfi_def_cfa 7, 8
	ret
	.cfi_endproc
.LFE185:
	.size	yy_2_Right, .-yy_2_Right
	.type	yy_1_Right, @function
yy_1_Right:
.LFB186:
	.loc 1 115 1
	.cfi_startproc
	endbr64
	pushq	%rbp
	.cfi_def_cfa_offset 16
	.cfi_offset 6, -16
	movq	%rsp, %rbp
	.cfi_def_cfa_register 6
	subq	$32, %rsp
1:	call	*mcount@GOTPCREL(%rip)
	movq	%rdi, -8(%rbp)
	movq	%rsi, -16(%rbp)
	movl	%edx, -20(%rbp)
	.loc 1 107 9
	leaq	.LC12(%rip), %rdi
	call	mk_str@PLT
	.loc 1 107 7
	movq	-8(%rbp), %rdx
	movq	%rax, 64(%rdx)
	.loc 1 112 1
	nop
	leave
	.cfi_def_cfa 7, 8
	ret
	.cfi_endproc
.LFE186:
	.size	yy_1_Right, .-yy_1_Right
	.section	.rodata
.LC151:
	.string	"{"
	.text
	.type	yy_6_Left, @function
yy_6_Left:
.LFB187:
	.loc 1 114 1
	.cfi_startproc
	endbr64
	pushq	%rbp
	.cfi_def_cfa_offset 16
	.cfi_offset 6, -16
	movq	%rsp, %rbp
	.cfi_def_cfa_register 6
	subq	$32, %rsp
1:	call	*mcount@GOTPCREL(%rip)
	movq	%rdi, -8(%rbp)
	movq	%rsi, -16(%rbp)
	movl	%edx, -20(%rbp)
	.loc 1 105 9
	leaq	.LC151(%rip), %rdi
	call	mk_str@PLT
	.loc 1 105 7
	movq	-8(%rbp), %rdx
	movq	%rax, 64(%rdx)
	.loc 1 110 1
	nop
	leave
	.cfi_def_cfa 7, 8
	ret
	.cfi_endproc
.LFE187:
	.size	yy_6_Left, .-yy_6_Left
	.section	.rodata
.LC152:
	.string	"["
	.text
	.type	yy_5_Left, @function
yy_5_Left:
.LFB188:
	.loc 1 112 1
	.cfi_startproc
	endbr64
	pushq	%rbp
	.cfi_def_cfa_offset 16
	.cfi_offset 6, -16
	movq	%rsp, %rbp
	.cfi_def_cfa_register 6
	subq	$32, %rsp
1:	call	*mcount@GOTPCREL(%rip)
	movq	%rdi, -8(%rbp)
	movq	%rsi, -16(%rbp)
	movl	%edx, -20(%rbp)
	.loc 1 104 9
	leaq	.LC152(%rip), %rdi
	call	mk_str@PLT
	.loc 1 104 7
	movq	-8(%rbp), %rdx
	movq	%rax, 64(%rdx)
	.loc 1 109 1
	nop
	leave
	.cfi_def_cfa 7, 8
	ret
	.cfi_endproc
.LFE188:
	.size	yy_5_Left, .-yy_5_Left
	.section	.rodata
.LC153:
	.string	"("
	.text
	.type	yy_4_Left, @function
yy_4_Left:
.LFB189:
	.loc 1 111 1
	.cfi_startproc
	endbr64
	pushq	%rbp
	.cfi_def_cfa_offset 16
	.cfi_offset 6, -16
	movq	%rsp, %rbp
	.cfi_def_cfa_register 6
	subq	$32, %rsp
1:	call	*mcount@GOTPCREL(%rip)
	movq	%rdi, -8(%rbp)
	movq	%rsi, -16(%rbp)
	movl	%edx, -20(%rbp)
	.loc 1 103 9
	leaq	.LC153(%rip), %rdi
	call	mk_str@PLT
	.loc 1 103 7
	movq	-8(%rbp), %rdx
	movq	%rax, 64(%rdx)
	.loc 1 108 1
	nop
	leave
	.cfi_def_cfa 7, 8
	ret
	.cfi_endproc
.LFE189:
	.size	yy_4_Left, .-yy_4_Left
	.section	.rodata
.LC154:
	.string	"\342\237\250"
	.text
	.type	yy_3_Left, @function
yy_3_Left:
.LFB190:
	.loc 1 110 1
	.cfi_startproc
	endbr64
	pushq	%rbp
	.cfi_def_cfa_offset 16
	.cfi_offset 6, -16
	movq	%rsp, %rbp
	.cfi_def_cfa_register 6
	subq	$32, %rsp
1:	call	*mcount@GOTPCREL(%rip)
	movq	%rdi, -8(%rbp)
	movq	%rsi, -16(%rbp)
	movl	%edx, -20(%rbp)
	.loc 1 102 9
	leaq	.LC154(%rip), %rdi
	call	mk_str@PLT
	.loc 1 102 7
	movq	-8(%rbp), %rdx
	movq	%rax, 64(%rdx)
	.loc 1 107 1
	nop
	leave
	.cfi_def_cfa 7, 8
	ret
	.cfi_endproc
.LFE190:
	.size	yy_3_Left, .-yy_3_Left
	.type	yy_2_Left, @function
yy_2_Left:
.LFB191:
	.loc 1 109 1
	.cfi_startproc
	endbr64
	pushq	%rbp
	.cfi_def_cfa_offset 16
	.cfi_offset 6, -16
	movq	%rsp, %rbp
	.cfi_def_cfa_register 6
	subq	$32, %rsp
1:	call	*mcount@GOTPCREL(%rip)
	movq	%rdi, -8(%rbp)
	movq	%rsi, -16(%rbp)
	movl	%edx, -20(%rbp)
	.loc 1 101 9
	leaq	.LC154(%rip), %rdi
	call	mk_str@PLT
	.loc 1 101 7
	movq	-8(%rbp), %rdx
	movq	%rax, 64(%rdx)
	.loc 1 106 1
	nop
	leave
	.cfi_def_cfa 7, 8
	ret
	.cfi_endproc
.LFE191:
	.size	yy_2_Left, .-yy_2_Left
	.type	yy_1_Left, @function
yy_1_Left:
.LFB192:
	.loc 1 108 1
	.cfi_startproc
	endbr64
	pushq	%rbp
	.cfi_def_cfa_offset 16
	.cfi_offset 6, -16
	movq	%rsp, %rbp
	.cfi_def_cfa_register 6
	subq	$32, %rsp
1:	call	*mcount@GOTPCREL(%rip)
	movq	%rdi, -8(%rbp)
	movq	%rsi, -16(%rbp)
	movl	%edx, -20(%rbp)
	.loc 1 100 9
	leaq	.LC12(%rip), %rdi
	call	mk_str@PLT
	.loc 1 100 7
	movq	-8(%rbp), %rdx
	movq	%rax, 64(%rdx)
	.loc 1 105 1
	nop
	leave
	.cfi_def_cfa 7, 8
	ret
	.cfi_endproc
.LFE192:
	.size	yy_1_Left, .-yy_1_Left
	.section	.rodata
.LC155:
	.string	"sans-serif"
	.text
	.type	yy_17_Unary, @function
yy_17_Unary:
.LFB193:
	.loc 1 107 1
	.cfi_startproc
	endbr64
	pushq	%rbp
	.cfi_def_cfa_offset 16
	.cfi_offset 6, -16
	movq	%rsp, %rbp
	.cfi_def_cfa_register 6
	subq	$32, %rsp
1:	call	*mcount@GOTPCREL(%rip)
	movq	%rdi, -8(%rbp)
	movq	%rsi, -16(%rbp)
	movl	%edx, -20(%rbp)
	.loc 1 98 14
	movq	-8(%rbp), %rax
	movq	72(%rax), %rax
	subq	$8, %rax
	.loc 1 98 9
	movq	(%rax), %rax
	leaq	.LC155(%rip), %rsi
	movq	%rax, %rdi
	call	font@PLT
	.loc 1 98 7
	movq	-8(%rbp), %rdx
	movq	%rax, 64(%rdx)
	.loc 1 105 1
	nop
	leave
	.cfi_def_cfa 7, 8
	ret
	.cfi_endproc
.LFE193:
	.size	yy_17_Unary, .-yy_17_Unary
	.section	.rodata
.LC156:
	.string	"fraktur"
	.text
	.type	yy_16_Unary, @function
yy_16_Unary:
.LFB194:
	.loc 1 107 1
	.cfi_startproc
	endbr64
	pushq	%rbp
	.cfi_def_cfa_offset 16
	.cfi_offset 6, -16
	movq	%rsp, %rbp
	.cfi_def_cfa_register 6
	subq	$32, %rsp
1:	call	*mcount@GOTPCREL(%rip)
	movq	%rdi, -8(%rbp)
	movq	%rsi, -16(%rbp)
	movl	%edx, -20(%rbp)
	.loc 1 97 14
	movq	-8(%rbp), %rax
	movq	72(%rax), %rax
	subq	$8, %rax
	.loc 1 97 9
	movq	(%rax), %rax
	leaq	.LC156(%rip), %rsi
	movq	%rax, %rdi
	call	font@PLT
	.loc 1 97 7
	movq	-8(%rbp), %rdx
	movq	%rax, 64(%rdx)
	.loc 1 104 1
	nop
	leave
	.cfi_def_cfa 7, 8
	ret
	.cfi_endproc
.LFE194:
	.size	yy_16_Unary, .-yy_16_Unary
	.section	.rodata
.LC157:
	.string	"monospace"
	.text
	.type	yy_15_Unary, @function
yy_15_Unary:
.LFB195:
	.loc 1 106 1
	.cfi_startproc
	endbr64
	pushq	%rbp
	.cfi_def_cfa_offset 16
	.cfi_offset 6, -16
	movq	%rsp, %rbp
	.cfi_def_cfa_register 6
	subq	$32, %rsp
1:	call	*mcount@GOTPCREL(%rip)
	movq	%rdi, -8(%rbp)
	movq	%rsi, -16(%rbp)
	movl	%edx, -20(%rbp)
	.loc 1 96 14
	movq	-8(%rbp), %rax
	movq	72(%rax), %rax
	subq	$8, %rax
	.loc 1 96 9
	movq	(%rax), %rax
	leaq	.LC157(%rip), %rsi
	movq	%rax, %rdi
	call	font@PLT
	.loc 1 96 7
	movq	-8(%rbp), %rdx
	movq	%rax, 64(%rdx)
	.loc 1 103 1
	nop
	leave
	.cfi_def_cfa 7, 8
	ret
	.cfi_endproc
.LFE195:
	.size	yy_15_Unary, .-yy_15_Unary
	.section	.rodata
.LC158:
	.string	"script"
	.text
	.type	yy_14_Unary, @function
yy_14_Unary:
.LFB196:
	.loc 1 105 1
	.cfi_startproc
	endbr64
	pushq	%rbp
	.cfi_def_cfa_offset 16
	.cfi_offset 6, -16
	movq	%rsp, %rbp
	.cfi_def_cfa_register 6
	subq	$32, %rsp
1:	call	*mcount@GOTPCREL(%rip)
	movq	%rdi, -8(%rbp)
	movq	%rsi, -16(%rbp)
	movl	%edx, -20(%rbp)
	.loc 1 95 14
	movq	-8(%rbp), %rax
	movq	72(%rax), %rax
	subq	$8, %rax
	.loc 1 95 9
	movq	(%rax), %rax
	leaq	.LC158(%rip), %rsi
	movq	%rax, %rdi
	call	font@PLT
	.loc 1 95 7
	movq	-8(%rbp), %rdx
	movq	%rax, 64(%rdx)
	.loc 1 102 1
	nop
	leave
	.cfi_def_cfa 7, 8
	ret
	.cfi_endproc
.LFE196:
	.size	yy_14_Unary, .-yy_14_Unary
	.section	.rodata
.LC159:
	.string	"bold"
	.text
	.type	yy_13_Unary, @function
yy_13_Unary:
.LFB197:
	.loc 1 104 1
	.cfi_startproc
	endbr64
	pushq	%rbp
	.cfi_def_cfa_offset 16
	.cfi_offset 6, -16
	movq	%rsp, %rbp
	.cfi_def_cfa_register 6
	subq	$32, %rsp
1:	call	*mcount@GOTPCREL(%rip)
	movq	%rdi, -8(%rbp)
	movq	%rsi, -16(%rbp)
	movl	%edx, -20(%rbp)
	.loc 1 94 14
	movq	-8(%rbp), %rax
	movq	72(%rax), %rax
	subq	$8, %rax
	.loc 1 94 9
	movq	(%rax), %rax
	leaq	.LC159(%rip), %rsi
	movq	%rax, %rdi
	call	font@PLT
	.loc 1 94 7
	movq	-8(%rbp), %rdx
	movq	%rax, 64(%rdx)
	.loc 1 101 1
	nop
	leave
	.cfi_def_cfa 7, 8
	ret
	.cfi_endproc
.LFE197:
	.size	yy_13_Unary, .-yy_13_Unary
	.section	.rodata
.LC160:
	.string	"double-struck"
	.text
	.type	yy_12_Unary, @function
yy_12_Unary:
.LFB198:
	.loc 1 103 1
	.cfi_startproc
	endbr64
	pushq	%rbp
	.cfi_def_cfa_offset 16
	.cfi_offset 6, -16
	movq	%rsp, %rbp
	.cfi_def_cfa_register 6
	subq	$32, %rsp
1:	call	*mcount@GOTPCREL(%rip)
	movq	%rdi, -8(%rbp)
	movq	%rsi, -16(%rbp)
	movl	%edx, -20(%rbp)
	.loc 1 93 14
	movq	-8(%rbp), %rax
	movq	72(%rax), %rax
	subq	$8, %rax
	.loc 1 93 9
	movq	(%rax), %rax
	leaq	.LC160(%rip), %rsi
	movq	%rax, %rdi
	call	font@PLT
	.loc 1 93 7
	movq	-8(%rbp), %rdx
	movq	%rax, 64(%rdx)
	.loc 1 100 1
	nop
	leave
	.cfi_def_cfa 7, 8
	ret
	.cfi_endproc
.LFE198:
	.size	yy_12_Unary, .-yy_12_Unary
	.section	.rodata
.LC161:
	.string	"~"
	.text
	.type	yy_11_Unary, @function
yy_11_Unary:
.LFB199:
	.loc 1 102 1
	.cfi_startproc
	endbr64
	pushq	%rbp
	.cfi_def_cfa_offset 16
	.cfi_offset 6, -16
	movq	%rsp, %rbp
	.cfi_def_cfa_register 6
	subq	$32, %rsp
1:	call	*mcount@GOTPCREL(%rip)
	movq	%rdi, -8(%rbp)
	movq	%rsi, -16(%rbp)
	movl	%edx, -20(%rbp)
	.loc 1 91 16
	movq	-8(%rbp), %rax
	movq	72(%rax), %rax
	subq	$8, %rax
	.loc 1 91 9
	movq	(%rax), %rax
	leaq	.LC161(%rip), %rsi
	movq	%rax, %rdi
	call	accent@PLT
	.loc 1 91 7
	movq	-8(%rbp), %rdx
	movq	%rax, 64(%rdx)
	.loc 1 98 1
	nop
	leave
	.cfi_def_cfa 7, 8
	ret
	.cfi_endproc
.LFE199:
	.size	yy_11_Unary, .-yy_11_Unary
	.section	.rodata
.LC162:
	.string	".."
	.text
	.type	yy_10_Unary, @function
yy_10_Unary:
.LFB200:
	.loc 1 100 1
	.cfi_startproc
	endbr64
	pushq	%rbp
	.cfi_def_cfa_offset 16
	.cfi_offset 6, -16
	movq	%rsp, %rbp
	.cfi_def_cfa_register 6
	subq	$32, %rsp
1:	call	*mcount@GOTPCREL(%rip)
	movq	%rdi, -8(%rbp)
	movq	%rsi, -16(%rbp)
	movl	%edx, -20(%rbp)
	.loc 1 90 16
	movq	-8(%rbp), %rax
	movq	72(%rax), %rax
	subq	$8, %rax
	.loc 1 90 9
	movq	(%rax), %rax
	leaq	.LC162(%rip), %rsi
	movq	%rax, %rdi
	call	accent@PLT
	.loc 1 90 7
	movq	-8(%rbp), %rdx
	movq	%rax, 64(%rdx)
	.loc 1 97 1
	nop
	leave
	.cfi_def_cfa 7, 8
	ret
	.cfi_endproc
.LFE200:
	.size	yy_10_Unary, .-yy_10_Unary
	.section	.rodata
.LC163:
	.string	"."
	.text
	.type	yy_9_Unary, @function
yy_9_Unary:
.LFB201:
	.loc 1 99 1
	.cfi_startproc
	endbr64
	pushq	%rbp
	.cfi_def_cfa_offset 16
	.cfi_offset 6, -16
	movq	%rsp, %rbp
	.cfi_def_cfa_register 6
	subq	$32, %rsp
1:	call	*mcount@GOTPCREL(%rip)
	movq	%rdi, -8(%rbp)
	movq	%rsi, -16(%rbp)
	movl	%edx, -20(%rbp)
	.loc 1 89 16
	movq	-8(%rbp), %rax
	movq	72(%rax), %rax
	subq	$8, %rax
	.loc 1 89 9
	movq	(%rax), %rax
	leaq	.LC163(%rip), %rsi
	movq	%rax, %rdi
	call	accent@PLT
	.loc 1 89 7
	movq	-8(%rbp), %rdx
	movq	%rax, 64(%rdx)
	.loc 1 96 1
	nop
	leave
	.cfi_def_cfa 7, 8
	ret
	.cfi_endproc
.LFE201:
	.size	yy_9_Unary, .-yy_9_Unary
	.type	yy_8_Unary, @function
yy_8_Unary:
.LFB202:
	.loc 1 98 1
	.cfi_startproc
	endbr64
	pushq	%rbp
	.cfi_def_cfa_offset 16
	.cfi_offset 6, -16
	movq	%rsp, %rbp
	.cfi_def_cfa_register 6
	subq	$32, %rsp
1:	call	*mcount@GOTPCREL(%rip)
	movq	%rdi, -8(%rbp)
	movq	%rsi, -16(%rbp)
	movl	%edx, -20(%rbp)
	.loc 1 88 16
	movq	-8(%rbp), %rax
	movq	72(%rax), %rax
	subq	$8, %rax
	.loc 1 88 9
	movq	(%rax), %rax
	leaq	.LC109(%rip), %rsi
	movq	%rax, %rdi
	call	accent@PLT
	.loc 1 88 7
	movq	-8(%rbp), %rdx
	movq	%rax, 64(%rdx)
	.loc 1 95 1
	nop
	leave
	.cfi_def_cfa 7, 8
	ret
	.cfi_endproc
.LFE202:
	.size	yy_8_Unary, .-yy_8_Unary
	.section	.rodata
.LC164:
	.string	"_"
	.text
	.type	yy_7_Unary, @function
yy_7_Unary:
.LFB203:
	.loc 1 97 1
	.cfi_startproc
	endbr64
	pushq	%rbp
	.cfi_def_cfa_offset 16
	.cfi_offset 6, -16
	movq	%rsp, %rbp
	.cfi_def_cfa_register 6
	subq	$32, %rsp
1:	call	*mcount@GOTPCREL(%rip)
	movq	%rdi, -8(%rbp)
	movq	%rsi, -16(%rbp)
	movl	%edx, -20(%rbp)
	.loc 1 87 16
	movq	-8(%rbp), %rax
	movq	72(%rax), %rax
	subq	$8, %rax
	.loc 1 87 9
	movq	(%rax), %rax
	leaq	.LC164(%rip), %rsi
	movq	%rax, %rdi
	call	accent@PLT
	.loc 1 87 7
	movq	-8(%rbp), %rdx
	movq	%rax, 64(%rdx)
	.loc 1 94 1
	nop
	leave
	.cfi_def_cfa 7, 8
	ret
	.cfi_endproc
.LFE203:
	.size	yy_7_Unary, .-yy_7_Unary
	.section	.rodata
.LC165:
	.string	"\302\257"
	.text
	.type	yy_6_Unary, @function
yy_6_Unary:
.LFB204:
	.loc 1 96 1
	.cfi_startproc
	endbr64
	pushq	%rbp
	.cfi_def_cfa_offset 16
	.cfi_offset 6, -16
	movq	%rsp, %rbp
	.cfi_def_cfa_register 6
	subq	$32, %rsp
1:	call	*mcount@GOTPCREL(%rip)
	movq	%rdi, -8(%rbp)
	movq	%rsi, -16(%rbp)
	movl	%edx, -20(%rbp)
	.loc 1 86 16
	movq	-8(%rbp), %rax
	movq	72(%rax), %rax
	subq	$8, %rax
	.loc 1 86 9
	movq	(%rax), %rax
	leaq	.LC165(%rip), %rsi
	movq	%rax, %rdi
	call	accent@PLT
	.loc 1 86 7
	movq	-8(%rbp), %rdx
	movq	%rax, 64(%rdx)
	.loc 1 93 1
	nop
	leave
	.cfi_def_cfa 7, 8
	ret
	.cfi_endproc
.LFE204:
	.size	yy_6_Unary, .-yy_6_Unary
	.section	.rodata
.LC166:
	.string	"^"
	.text
	.type	yy_5_Unary, @function
yy_5_Unary:
.LFB205:
	.loc 1 95 1
	.cfi_startproc
	endbr64
	pushq	%rbp
	.cfi_def_cfa_offset 16
	.cfi_offset 6, -16
	movq	%rsp, %rbp
	.cfi_def_cfa_register 6
	subq	$32, %rsp
1:	call	*mcount@GOTPCREL(%rip)
	movq	%rdi, -8(%rbp)
	movq	%rsi, -16(%rbp)
	movl	%edx, -20(%rbp)
	.loc 1 85 16
	movq	-8(%rbp), %rax
	movq	72(%rax), %rax
	subq	$8, %rax
	.loc 1 85 9
	movq	(%rax), %rax
	leaq	.LC166(%rip), %rsi
	movq	%rax, %rdi
	call	accent@PLT
	.loc 1 85 7
	movq	-8(%rbp), %rdx
	movq	%rax, 64(%rdx)
	.loc 1 92 1
	nop
	leave
	.cfi_def_cfa 7, 8
	ret
	.cfi_endproc
.LFE205:
	.size	yy_5_Unary, .-yy_5_Unary
	.type	yy_4_Unary, @function
yy_4_Unary:
.LFB206:
	.loc 1 94 1
	.cfi_startproc
	endbr64
	pushq	%rbp
	.cfi_def_cfa_offset 16
	.cfi_offset 6, -16
	movq	%rsp, %rbp
	.cfi_def_cfa_register 6
	subq	$32, %rsp
1:	call	*mcount@GOTPCREL(%rip)
	movq	%rdi, -8(%rbp)
	movq	%rsi, -16(%rbp)
	movl	%edx, -20(%rbp)
	.loc 1 83 16
	movq	-8(%rbp), %rax
	movq	72(%rax), %rax
	subq	$16, %rax
	.loc 1 83 9
	movq	(%rax), %rax
	movq	%rax, %rdi
	call	cancel@PLT
	.loc 1 83 7
	movq	-8(%rbp), %rdx
	movq	%rax, 64(%rdx)
	.loc 1 90 1
	nop
	leave
	.cfi_def_cfa 7, 8
	ret
	.cfi_endproc
.LFE206:
	.size	yy_4_Unary, .-yy_4_Unary
	.type	yy_3_Unary, @function
yy_3_Unary:
.LFB207:
	.loc 1 92 1
	.cfi_startproc
	endbr64
	pushq	%rbp
	.cfi_def_cfa_offset 16
	.cfi_offset 6, -16
	movq	%rsp, %rbp
	.cfi_def_cfa_register 6
	subq	$32, %rsp
1:	call	*mcount@GOTPCREL(%rip)
	movq	%rdi, -8(%rbp)
	movq	%rsi, -16(%rbp)
	movl	%edx, -20(%rbp)
	.loc 1 82 12
	movq	-8(%rbp), %rax
	movq	72(%rax), %rax
	subq	$16, %rax
	.loc 1 82 9
	movq	(%rax), %rax
	movq	%rax, %rdi
	call	ul@PLT
	.loc 1 82 7
	movq	-8(%rbp), %rdx
	movq	%rax, 64(%rdx)
	.loc 1 89 1
	nop
	leave
	.cfi_def_cfa 7, 8
	ret
	.cfi_endproc
.LFE207:
	.size	yy_3_Unary, .-yy_3_Unary
	.type	yy_2_Unary, @function
yy_2_Unary:
.LFB208:
	.loc 1 91 1
	.cfi_startproc
	endbr64
	pushq	%rbp
	.cfi_def_cfa_offset 16
	.cfi_offset 6, -16
	movq	%rsp, %rbp
	.cfi_def_cfa_register 6
	subq	$32, %rsp
1:	call	*mcount@GOTPCREL(%rip)
	movq	%rdi, -8(%rbp)
	movq	%rsi, -16(%rbp)
	movl	%edx, -20(%rbp)
	.loc 1 81 15
	movq	-8(%rbp), %rax
	movq	72(%rax), %rax
	subq	$16, %rax
	.loc 1 81 9
	movq	(%rax), %rax
	movq	%rax, %rdi
	call	mtext@PLT
	.loc 1 81 7
	movq	-8(%rbp), %rdx
	movq	%rax, 64(%rdx)
	.loc 1 88 1
	nop
	leave
	.cfi_def_cfa 7, 8
	ret
	.cfi_endproc
.LFE208:
	.size	yy_2_Unary, .-yy_2_Unary
	.type	yy_1_Unary, @function
yy_1_Unary:
.LFB209:
	.loc 1 90 1
	.cfi_startproc
	endbr64
	pushq	%rbp
	.cfi_def_cfa_offset 16
	.cfi_offset 6, -16
	movq	%rsp, %rbp
	.cfi_def_cfa_register 6
	subq	$32, %rsp
1:	call	*mcount@GOTPCREL(%rip)
	movq	%rdi, -8(%rbp)
	movq	%rsi, -16(%rbp)
	movl	%edx, -20(%rbp)
	.loc 1 80 15
	movq	-8(%rbp), %rax
	movq	72(%rax), %rax
	subq	$16, %rax
	.loc 1 80 9
	movq	(%rax), %rax
	movq	%rax, %rdi
	call	msqrt@PLT
	.loc 1 80 7
	movq	-8(%rbp), %rdx
	movq	%rax, 64(%rdx)
	.loc 1 87 1
	nop
	leave
	.cfi_def_cfa 7, 8
	ret
	.cfi_endproc
.LFE209:
	.size	yy_1_Unary, .-yy_1_Unary
	.type	yy_6_Binary, @function
yy_6_Binary:
.LFB210:
	.loc 1 89 1
	.cfi_startproc
	endbr64
	pushq	%rbp
	.cfi_def_cfa_offset 16
	.cfi_offset 6, -16
	movq	%rsp, %rbp
	.cfi_def_cfa_register 6
	subq	$32, %rsp
1:	call	*mcount@GOTPCREL(%rip)
	movq	%rdi, -8(%rbp)
	movq	%rsi, -16(%rbp)
	movl	%edx, -20(%rbp)
	.loc 1 78 23
	movq	-8(%rbp), %rax
	movq	72(%rax), %rax
	subq	$8, %rax
	.loc 1 78 9
	movq	(%rax), %rdx
	.loc 1 78 19
	movq	-8(%rbp), %rax
	movq	72(%rax), %rax
	subq	$16, %rax
	.loc 1 78 9
	movq	(%rax), %rax
	movq	%rdx, %rsi
	movq	%rax, %rdi
	call	mk_obrace@PLT
	.loc 1 78 7
	movq	-8(%rbp), %rdx
	movq	%rax, 64(%rdx)
	.loc 1 85 1
	nop
	leave
	.cfi_def_cfa 7, 8
	ret
	.cfi_endproc
.LFE210:
	.size	yy_6_Binary, .-yy_6_Binary
	.type	yy_5_Binary, @function
yy_5_Binary:
.LFB211:
	.loc 1 87 1
	.cfi_startproc
	endbr64
	pushq	%rbp
	.cfi_def_cfa_offset 16
	.cfi_offset 6, -16
	movq	%rsp, %rbp
	.cfi_def_cfa_register 6
	subq	$32, %rsp
1:	call	*mcount@GOTPCREL(%rip)
	movq	%rdi, -8(%rbp)
	movq	%rsi, -16(%rbp)
	movl	%edx, -20(%rbp)
	.loc 1 77 23
	movq	-8(%rbp), %rax
	movq	72(%rax), %rax
	subq	$8, %rax
	.loc 1 77 9
	movq	(%rax), %rdx
	.loc 1 77 19
	movq	-8(%rbp), %rax
	movq	72(%rax), %rax
	subq	$16, %rax
	.loc 1 77 9
	movq	(%rax), %rax
	movq	%rdx, %rsi
	movq	%rax, %rdi
	call	mk_ubrace@PLT
	.loc 1 77 7
	movq	-8(%rbp), %rdx
	movq	%rax, 64(%rdx)
	.loc 1 84 1
	nop
	leave
	.cfi_def_cfa 7, 8
	ret
	.cfi_endproc
.LFE211:
	.size	yy_5_Binary, .-yy_5_Binary
	.type	yy_4_Binary, @function
yy_4_Binary:
.LFB212:
	.loc 1 86 1
	.cfi_startproc
	endbr64
	pushq	%rbp
	.cfi_def_cfa_offset 16
	.cfi_offset 6, -16
	movq	%rsp, %rbp
	.cfi_def_cfa_register 6
	subq	$32, %rsp
1:	call	*mcount@GOTPCREL(%rip)
	movq	%rdi, -8(%rbp)
	movq	%rsi, -16(%rbp)
	movl	%edx, -20(%rbp)
	.loc 1 76 25
	movq	-8(%rbp), %rax
	movq	72(%rax), %rax
	subq	$16, %rax
	.loc 1 76 9
	movq	(%rax), %rdx
	.loc 1 76 21
	movq	-8(%rbp), %rax
	movq	72(%rax), %rax
	subq	$8, %rax
	.loc 1 76 9
	movq	(%rax), %rax
	movq	%rdx, %rsi
	movq	%rax, %rdi
	call	mk_stackrel@PLT
	.loc 1 76 7
	movq	-8(%rbp), %rdx
	movq	%rax, 64(%rdx)
	.loc 1 83 1
	nop
	leave
	.cfi_def_cfa 7, 8
	ret
	.cfi_endproc
.LFE212:
	.size	yy_4_Binary, .-yy_4_Binary
	.type	yy_3_Binary, @function
yy_3_Binary:
.LFB213:
	.loc 1 85 1
	.cfi_startproc
	endbr64
	pushq	%rbp
	.cfi_def_cfa_offset 16
	.cfi_offset 6, -16
	movq	%rsp, %rbp
	.cfi_def_cfa_register 6
	subq	$32, %rsp
1:	call	*mcount@GOTPCREL(%rip)
	movq	%rdi, -8(%rbp)
	movq	%rsi, -16(%rbp)
	movl	%edx, -20(%rbp)
	.loc 1 75 22
	movq	-8(%rbp), %rax
	movq	72(%rax), %rax
	subq	$8, %rax
	.loc 1 75 9
	movq	(%rax), %rdx
	.loc 1 75 18
	movq	-8(%rbp), %rax
	movq	72(%rax), %rax
	subq	$16, %rax
	.loc 1 75 9
	movq	(%rax), %rax
	movq	%rdx, %rsi
	movq	%rax, %rdi
	call	mk_color@PLT
	.loc 1 75 7
	movq	-8(%rbp), %rdx
	movq	%rax, 64(%rdx)
	.loc 1 82 1
	nop
	leave
	.cfi_def_cfa 7, 8
	ret
	.cfi_endproc
.LFE213:
	.size	yy_3_Binary, .-yy_3_Binary
	.type	yy_2_Binary, @function
yy_2_Binary:
.LFB214:
	.loc 1 84 1
	.cfi_startproc
	endbr64
	pushq	%rbp
	.cfi_def_cfa_offset 16
	.cfi_offset 6, -16
	movq	%rsp, %rbp
	.cfi_def_cfa_register 6
	subq	$32, %rsp
1:	call	*mcount@GOTPCREL(%rip)
	movq	%rdi, -8(%rbp)
	movq	%rsi, -16(%rbp)
	movl	%edx, -20(%rbp)
	.loc 1 74 21
	movq	-8(%rbp), %rax
	movq	72(%rax), %rax
	subq	$16, %rax
	.loc 1 74 9
	movq	(%rax), %rdx
	.loc 1 74 17
	movq	-8(%rbp), %rax
	movq	72(%rax), %rax
	subq	$8, %rax
	.loc 1 74 9
	movq	(%rax), %rax
	movq	%rdx, %rsi
	movq	%rax, %rdi
	call	mk_root@PLT
	.loc 1 74 7
	movq	-8(%rbp), %rdx
	movq	%rax, 64(%rdx)
	.loc 1 81 1
	nop
	leave
	.cfi_def_cfa 7, 8
	ret
	.cfi_endproc
.LFE214:
	.size	yy_2_Binary, .-yy_2_Binary
	.type	yy_1_Binary, @function
yy_1_Binary:
.LFB215:
	.loc 1 83 1
	.cfi_startproc
	endbr64
	pushq	%rbp
	.cfi_def_cfa_offset 16
	.cfi_offset 6, -16
	movq	%rsp, %rbp
	.cfi_def_cfa_register 6
	subq	$32, %rsp
1:	call	*mcount@GOTPCREL(%rip)
	movq	%rdi, -8(%rbp)
	movq	%rsi, -16(%rbp)
	movl	%edx, -20(%rbp)
	.loc 1 73 21
	movq	-8(%rbp), %rax
	movq	72(%rax), %rax
	subq	$8, %rax
	.loc 1 73 9
	movq	(%rax), %rdx
	.loc 1 73 17
	movq	-8(%rbp), %rax
	movq	72(%rax), %rax
	subq	$16, %rax
	.loc 1 73 9
	movq	(%rax), %rax
	movq	%rdx, %rsi
	movq	%rax, %rdi
	call	mk_frac@PLT
	.loc 1 73 7
	movq	-8(%rbp), %rdx
	movq	%rax, 64(%rdx)
	.loc 1 80 1
	nop
	leave
	.cfi_def_cfa 7, 8
	ret
	.cfi_endproc
.LFE215:
	.size	yy_1_Binary, .-yy_1_Binary
	.type	yy_1_Color, @function
yy_1_Color:
.LFB216:
	.loc 1 82 1
	.cfi_startproc
	endbr64
	pushq	%rbp
	.cfi_def_cfa_offset 16
	.cfi_offset 6, -16
	movq	%rsp, %rbp
	.cfi_def_cfa_register 6
	subq	$32, %rsp
1:	call	*mcount@GOTPCREL(%rip)
	movq	%rdi, -8(%rbp)
	movq	%rsi, -16(%rbp)
	movl	%edx, -20(%rbp)
	.loc 1 72 14
	movq	-8(%rbp), %rax
	movq	72(%rax), %rax
	subq	$16, %rax
	.loc 1 72 4
	movq	(%rax), %rax
	movq	%rax, %rdi
	call	free_node@PLT
	.loc 1 72 28
	movq	-8(%rbp), %rax
	movq	72(%rax), %rax
	subq	$8, %rax
	.loc 1 72 18
	movq	(%rax), %rax
	movq	%rax, %rdi
	call	free_node@PLT
	.loc 1 72 37
	movq	-16(%rbp), %rax
	movq	%rax, %rdi
	call	mk_str@PLT
	.loc 1 72 35
	movq	-8(%rbp), %rdx
	movq	%rax, 64(%rdx)
	.loc 1 79 1
	nop
	leave
	.cfi_def_cfa 7, 8
	ret
	.cfi_endproc
.LFE216:
	.size	yy_1_Color, .-yy_1_Color
	.type	yy_3_Matrix, @function
yy_3_Matrix:
.LFB217:
	.loc 1 81 1
	.cfi_startproc
	endbr64
	pushq	%rbp
	.cfi_def_cfa_offset 16
	.cfi_offset 6, -16
	movq	%rsp, %rbp
	.cfi_def_cfa_register 6
	subq	$32, %rsp
1:	call	*mcount@GOTPCREL(%rip)
	movq	%rdi, -8(%rbp)
	movq	%rsi, -16(%rbp)
	movl	%edx, -20(%rbp)
	.loc 1 70 23
	movq	-8(%rbp), %rax
	movq	72(%rax), %rax
	subq	$8, %rax
	.loc 1 70 9
	movq	(%rax), %rdx
	.loc 1 70 19
	movq	-8(%rbp), %rax
	movq	72(%rax), %rax
	subq	$24, %rax
	.loc 1 70 9
	movq	(%rax), %rcx
	.loc 1 70 16
	movq	-8(%rbp), %rax
	movq	72(%rax), %rax
	subq	$32, %rax
	.loc 1 70 9
	movq	(%rax), %rax
	movq	%rcx, %rsi
	movq	%rax, %rdi
	call	matrix@PLT
	.loc 1 70 7
	movq	-8(%rbp), %rdx
	movq	%rax, 64(%rdx)
	.loc 1 79 1
	nop
	leave
	.cfi_def_cfa 7, 8
	ret
	.cfi_endproc
.LFE217:
	.size	yy_3_Matrix, .-yy_3_Matrix
	.type	yy_2_Matrix, @function
yy_2_Matrix:
.LFB218:
	.loc 1 81 1
	.cfi_startproc
	endbr64
	pushq	%rbp
	.cfi_def_cfa_offset 16
	.cfi_offset 6, -16
	movq	%rsp, %rbp
	.cfi_def_cfa_register 6
	pushq	%rbx
	subq	$40, %rsp
	.cfi_offset 3, -24
1:	call	*mcount@GOTPCREL(%rip)
	movq	%rdi, -24(%rbp)
	movq	%rsi, -32(%rbp)
	movl	%edx, -36(%rbp)
	.loc 1 69 27
	movq	-24(%rbp), %rax
	movq	72(%rax), %rax
	subq	$16, %rax
	.loc 1 69 9
	movq	(%rax), %rax
	movq	%rax, %rdi
	call	row@PLT
	movq	%rax, %rcx
	.loc 1 69 19
	movq	-24(%rbp), %rax
	movq	72(%rax), %rax
	subq	$24, %rax
	.loc 1 69 9
	movq	(%rax), %rax
	.loc 1 69 4
	movq	-24(%rbp), %rdx
	movq	72(%rdx), %rdx
	leaq	-24(%rdx), %rbx
	.loc 1 69 9
	movq	%rcx, %rsi
	movq	%rax, %rdi
	call	mk_concat@PLT
	.loc 1 69 7
	movq	%rax, (%rbx)
	.loc 1 78 1
	nop
	addq	$40, %rsp
	popq	%rbx
	popq	%rbp
	.cfi_def_cfa 7, 8
	ret
	.cfi_endproc
.LFE218:
	.size	yy_2_Matrix, .-yy_2_Matrix
	.type	yy_1_Matrix, @function
yy_1_Matrix:
.LFB219:
	.loc 1 80 1
	.cfi_startproc
	endbr64
	pushq	%rbp
	.cfi_def_cfa_offset 16
	.cfi_offset 6, -16
	movq	%rsp, %rbp
	.cfi_def_cfa_register 6
	pushq	%rbx
	subq	$40, %rsp
	.cfi_offset 3, -24
1:	call	*mcount@GOTPCREL(%rip)
	movq	%rdi, -24(%rbp)
	movq	%rsi, -32(%rbp)
	movl	%edx, -36(%rbp)
	.loc 1 68 13
	movq	-24(%rbp), %rax
	movq	72(%rax), %rax
	subq	$24, %rax
	.loc 1 68 9
	movq	(%rax), %rax
	.loc 1 68 4
	movq	-24(%rbp), %rdx
	movq	72(%rdx), %rdx
	leaq	-24(%rdx), %rbx
	.loc 1 68 9
	movq	%rax, %rdi
	call	row@PLT
	.loc 1 68 7
	movq	%rax, (%rbx)
	.loc 1 77 1
	nop
	addq	$40, %rsp
	popq	%rbx
	popq	%rbp
	.cfi_def_cfa 7, 8
	ret
	.cfi_endproc
.LFE219:
	.size	yy_1_Matrix, .-yy_1_Matrix
	.type	yy_3_Row, @function
yy_3_Row:
.LFB220:
	.loc 1 79 1
	.cfi_startproc
	endbr64
	pushq	%rbp
	.cfi_def_cfa_offset 16
	.cfi_offset 6, -16
	movq	%rsp, %rbp
	.cfi_def_cfa_register 6
	subq	$32, %rsp
1:	call	*mcount@GOTPCREL(%rip)
	movq	%rdi, -8(%rbp)
	movq	%rsi, -16(%rbp)
	movl	%edx, -20(%rbp)
	.loc 1 67 14
	movq	-8(%rbp), %rax
	movq	72(%rax), %rax
	subq	$32, %rax
	.loc 1 67 4
	movq	(%rax), %rax
	movq	%rax, %rdi
	call	free_node@PLT
	.loc 1 67 28
	movq	-8(%rbp), %rax
	movq	72(%rax), %rax
	subq	$8, %rax
	.loc 1 67 18
	movq	(%rax), %rax
	movq	%rax, %rdi
	call	free_node@PLT
	.loc 1 67 37
	movq	-8(%rbp), %rax
	movq	72(%rax), %rax
	.loc 1 67 35
	movq	-24(%rax), %rdx
	movq	-8(%rbp), %rax
	movq	%rdx, 64(%rax)
	.loc 1 76 1
	nop
	leave
	.cfi_def_cfa 7, 8
	ret
	.cfi_endproc
.LFE220:
	.size	yy_3_Row, .-yy_3_Row
	.type	yy_2_Row, @function
yy_2_Row:
.LFB221:
	.loc 1 78 1
	.cfi_startproc
	endbr64
	pushq	%rbp
	.cfi_def_cfa_offset 16
	.cfi_offset 6, -16
	movq	%rsp, %rbp
	.cfi_def_cfa_register 6
	pushq	%rbx
	subq	$40, %rsp
	.cfi_offset 3, -24
1:	call	*mcount@GOTPCREL(%rip)
	movq	%rdi, -24(%rbp)
	movq	%rsi, -32(%rbp)
	movl	%edx, -36(%rbp)
	.loc 1 66 28
	movq	-24(%rbp), %rax
	movq	72(%rax), %rax
	subq	$16, %rax
	.loc 1 66 9
	movq	(%rax), %rax
	movq	%rax, %rdi
	call	cell@PLT
	movq	%rax, %rcx
	.loc 1 66 19
	movq	-24(%rbp), %rax
	movq	72(%rax), %rax
	subq	$24, %rax
	.loc 1 66 9
	movq	(%rax), %rax
	.loc 1 66 4
	movq	-24(%rbp), %rdx
	movq	72(%rdx), %rdx
	leaq	-24(%rdx), %rbx
	.loc 1 66 9
	movq	%rcx, %rsi
	movq	%rax, %rdi
	call	mk_concat@PLT
	.loc 1 66 7
	movq	%rax, (%rbx)
	.loc 1 75 1
	nop
	addq	$40, %rsp
	popq	%rbx
	popq	%rbp
	.cfi_def_cfa 7, 8
	ret
	.cfi_endproc
.LFE221:
	.size	yy_2_Row, .-yy_2_Row
	.type	yy_1_Row, @function
yy_1_Row:
.LFB222:
	.loc 1 77 1
	.cfi_startproc
	endbr64
	pushq	%rbp
	.cfi_def_cfa_offset 16
	.cfi_offset 6, -16
	movq	%rsp, %rbp
	.cfi_def_cfa_register 6
	pushq	%rbx
	subq	$40, %rsp
	.cfi_offset 3, -24
1:	call	*mcount@GOTPCREL(%rip)
	movq	%rdi, -24(%rbp)
	movq	%rsi, -32(%rbp)
	movl	%edx, -36(%rbp)
	.loc 1 65 14
	movq	-24(%rbp), %rax
	movq	72(%rax), %rax
	subq	$24, %rax
	.loc 1 65 9
	movq	(%rax), %rax
	.loc 1 65 4
	movq	-24(%rbp), %rdx
	movq	72(%rdx), %rdx
	leaq	-24(%rdx), %rbx
	.loc 1 65 9
	movq	%rax, %rdi
	call	cell@PLT
	.loc 1 65 7
	movq	%rax, (%rbx)
	.loc 1 74 1
	nop
	addq	$40, %rsp
	popq	%rbx
	popq	%rbp
	.cfi_def_cfa 7, 8
	ret
	.cfi_endproc
.LFE222:
	.size	yy_1_Row, .-yy_1_Row
	.type	yy_2_ExprM, @function
yy_2_ExprM:
.LFB223:
	.loc 1 76 1
	.cfi_startproc
	endbr64
	pushq	%rbp
	.cfi_def_cfa_offset 16
	.cfi_offset 6, -16
	movq	%rsp, %rbp
	.cfi_def_cfa_register 6
	subq	$24, %rsp
1:	call	*mcount@GOTPCREL(%rip)
	movq	%rdi, -8(%rbp)
	movq	%rsi, -16(%rbp)
	movl	%edx, -20(%rbp)
	.loc 1 64 9
	movq	-8(%rbp), %rax
	movq	72(%rax), %rax
	.loc 1 64 7
	movq	-16(%rax), %rdx
	movq	-8(%rbp), %rax
	movq	%rdx, 64(%rax)
	.loc 1 71 1
	nop
	leave
	.cfi_def_cfa 7, 8
	ret
	.cfi_endproc
.LFE223:
	.size	yy_2_ExprM, .-yy_2_ExprM
	.type	yy_1_ExprM, @function
yy_1_ExprM:
.LFB224:
	.loc 1 73 1
	.cfi_startproc
	endbr64
	pushq	%rbp
	.cfi_def_cfa_offset 16
	.cfi_offset 6, -16
	movq	%rsp, %rbp
	.cfi_def_cfa_register 6
	pushq	%rbx
	subq	$40, %rsp
	.cfi_offset 3, -24
1:	call	*mcount@GOTPCREL(%rip)
	movq	%rdi, -24(%rbp)
	movq	%rsi, -32(%rbp)
	movl	%edx, -36(%rbp)
	.loc 1 63 23
	movq	-24(%rbp), %rax
	movq	72(%rax), %rax
	subq	$8, %rax
	.loc 1 63 9
	movq	(%rax), %rdx
	.loc 1 63 19
	movq	-24(%rbp), %rax
	movq	72(%rax), %rax
	subq	$16, %rax
	.loc 1 63 9
	movq	(%rax), %rax
	.loc 1 63 4
	movq	-24(%rbp), %rcx
	movq	72(%rcx), %rcx
	leaq	-16(%rcx), %rbx
	.loc 1 63 9
	movq	%rdx, %rsi
	movq	%rax, %rdi
	call	mk_concat@PLT
	.loc 1 63 7
	movq	%rax, (%rbx)
	.loc 1 70 1
	nop
	addq	$40, %rsp
	popq	%rbx
	popq	%rbp
	.cfi_def_cfa 7, 8
	ret
	.cfi_endproc
.LFE224:
	.size	yy_1_ExprM, .-yy_1_ExprM
	.type	yy_2_ExprG, @function
yy_2_ExprG:
.LFB225:
	.loc 1 72 1
	.cfi_startproc
	endbr64
	pushq	%rbp
	.cfi_def_cfa_offset 16
	.cfi_offset 6, -16
	movq	%rsp, %rbp
	.cfi_def_cfa_register 6
	subq	$24, %rsp
1:	call	*mcount@GOTPCREL(%rip)
	movq	%rdi, -8(%rbp)
	movq	%rsi, -16(%rbp)
	movl	%edx, -20(%rbp)
	.loc 1 59 9
	movq	-8(%rbp), %rax
	movq	72(%rax), %rax
	.loc 1 59 7
	movq	-16(%rax), %rdx
	movq	-8(%rbp), %rax
	movq	%rdx, 64(%rax)
	.loc 1 66 1
	nop
	leave
	.cfi_def_cfa 7, 8
	ret
	.cfi_endproc
.LFE225:
	.size	yy_2_ExprG, .-yy_2_ExprG
	.type	yy_1_ExprG, @function
yy_1_ExprG:
.LFB226:
	.loc 1 68 1
	.cfi_startproc
	endbr64
	pushq	%rbp
	.cfi_def_cfa_offset 16
	.cfi_offset 6, -16
	movq	%rsp, %rbp
	.cfi_def_cfa_register 6
	pushq	%rbx
	subq	$40, %rsp
	.cfi_offset 3, -24
1:	call	*mcount@GOTPCREL(%rip)
	movq	%rdi, -24(%rbp)
	movq	%rsi, -32(%rbp)
	movl	%edx, -36(%rbp)
	.loc 1 58 23
	movq	-24(%rbp), %rax
	movq	72(%rax), %rax
	subq	$8, %rax
	.loc 1 58 9
	movq	(%rax), %rdx
	.loc 1 58 19
	movq	-24(%rbp), %rax
	movq	72(%rax), %rax
	subq	$16, %rax
	.loc 1 58 9
	movq	(%rax), %rax
	.loc 1 58 4
	movq	-24(%rbp), %rcx
	movq	72(%rcx), %rcx
	leaq	-16(%rcx), %rbx
	.loc 1 58 9
	movq	%rdx, %rsi
	movq	%rax, %rdi
	call	mk_concat@PLT
	.loc 1 58 7
	movq	%rax, (%rbx)
	.loc 1 65 1
	nop
	addq	$40, %rsp
	popq	%rbx
	popq	%rbp
	.cfi_def_cfa 7, 8
	ret
	.cfi_endproc
.LFE226:
	.size	yy_1_ExprG, .-yy_1_ExprG
	.type	yy_6_Simp, @function
yy_6_Simp:
.LFB227:
	.loc 1 67 1
	.cfi_startproc
	endbr64
	pushq	%rbp
	.cfi_def_cfa_offset 16
	.cfi_offset 6, -16
	movq	%rsp, %rbp
	.cfi_def_cfa_register 6
	subq	$32, %rsp
1:	call	*mcount@GOTPCREL(%rip)
	movq	%rdi, -8(%rbp)
	movq	%rsi, -16(%rbp)
	movl	%edx, -20(%rbp)
	.loc 1 53 9
	movq	-16(%rbp), %rax
	movq	%rax, %rdi
	call	mk_id@PLT
	.loc 1 53 7
	movq	-8(%rbp), %rdx
	movq	%rax, 64(%rdx)
	.loc 1 61 1
	nop
	leave
	.cfi_def_cfa 7, 8
	ret
	.cfi_endproc
.LFE227:
	.size	yy_6_Simp, .-yy_6_Simp
	.type	yy_5_Simp, @function
yy_5_Simp:
.LFB228:
	.loc 1 63 1
	.cfi_startproc
	endbr64
	pushq	%rbp
	.cfi_def_cfa_offset 16
	.cfi_offset 6, -16
	movq	%rsp, %rbp
	.cfi_def_cfa_register 6
	subq	$32, %rsp
1:	call	*mcount@GOTPCREL(%rip)
	movq	%rdi, -8(%rbp)
	movq	%rsi, -16(%rbp)
	movl	%edx, -20(%rbp)
	.loc 1 51 9
	movq	-16(%rbp), %rax
	movq	%rax, %rdi
	call	mk_id@PLT
	.loc 1 51 7
	movq	-8(%rbp), %rdx
	movq	%rax, 64(%rdx)
	.loc 1 59 1
	nop
	leave
	.cfi_def_cfa 7, 8
	ret
	.cfi_endproc
.LFE228:
	.size	yy_5_Simp, .-yy_5_Simp
	.type	yy_4_Simp, @function
yy_4_Simp:
.LFB229:
	.loc 1 61 1
	.cfi_startproc
	endbr64
	pushq	%rbp
	.cfi_def_cfa_offset 16
	.cfi_offset 6, -16
	movq	%rsp, %rbp
	.cfi_def_cfa_register 6
	subq	$32, %rsp
1:	call	*mcount@GOTPCREL(%rip)
	movq	%rdi, -8(%rbp)
	movq	%rsi, -16(%rbp)
	movl	%edx, -20(%rbp)
	.loc 1 50 9
	movq	-16(%rbp), %rax
	movq	%rax, %rdi
	call	mk_op@PLT
	.loc 1 50 7
	movq	-8(%rbp), %rdx
	movq	%rax, 64(%rdx)
	.loc 1 58 1
	nop
	leave
	.cfi_def_cfa 7, 8
	ret
	.cfi_endproc
.LFE229:
	.size	yy_4_Simp, .-yy_4_Simp
	.type	yy_3_Simp, @function
yy_3_Simp:
.LFB230:
	.loc 1 60 1
	.cfi_startproc
	endbr64
	pushq	%rbp
	.cfi_def_cfa_offset 16
	.cfi_offset 6, -16
	movq	%rsp, %rbp
	.cfi_def_cfa_register 6
	subq	$32, %rsp
1:	call	*mcount@GOTPCREL(%rip)
	movq	%rdi, -8(%rbp)
	movq	%rsi, -16(%rbp)
	movl	%edx, -20(%rbp)
	.loc 1 48 9
	movq	-16(%rbp), %rax
	movq	%rax, %rdi
	call	mk_number@PLT
	.loc 1 48 7
	movq	-8(%rbp), %rdx
	movq	%rax, 64(%rdx)
	.loc 1 56 1
	nop
	leave
	.cfi_def_cfa 7, 8
	ret
	.cfi_endproc
.LFE230:
	.size	yy_3_Simp, .-yy_3_Simp
	.type	yy_2_Simp, @function
yy_2_Simp:
.LFB231:
	.loc 1 58 1
	.cfi_startproc
	endbr64
	pushq	%rbp
	.cfi_def_cfa_offset 16
	.cfi_offset 6, -16
	movq	%rsp, %rbp
	.cfi_def_cfa_register 6
	subq	$32, %rsp
1:	call	*mcount@GOTPCREL(%rip)
	movq	%rdi, -8(%rbp)
	movq	%rsi, -16(%rbp)
	movl	%edx, -20(%rbp)
	.loc 1 46 9
	movq	-16(%rbp), %rax
	movq	%rax, %rdi
	call	mk_str@PLT
	movq	%rax, %rdi
	call	mtext@PLT
	.loc 1 46 7
	movq	-8(%rbp), %rdx
	movq	%rax, 64(%rdx)
	.loc 1 54 1
	nop
	leave
	.cfi_def_cfa 7, 8
	ret
	.cfi_endproc
.LFE231:
	.size	yy_2_Simp, .-yy_2_Simp
	.type	yy_1_Simp, @function
yy_1_Simp:
.LFB232:
	.loc 1 56 1
	.cfi_startproc
	endbr64
	pushq	%rbp
	.cfi_def_cfa_offset 16
	.cfi_offset 6, -16
	movq	%rsp, %rbp
	.cfi_def_cfa_register 6
	subq	$32, %rsp
1:	call	*mcount@GOTPCREL(%rip)
	movq	%rdi, -8(%rbp)
	movq	%rsi, -16(%rbp)
	movl	%edx, -20(%rbp)
	.loc 1 43 24
	movq	-8(%rbp), %rax
	movq	72(%rax), %rax
	subq	$8, %rax
	.loc 1 43 9
	movq	(%rax), %rdx
	.loc 1 43 21
	movq	-8(%rbp), %rax
	movq	72(%rax), %rax
	subq	$16, %rax
	.loc 1 43 9
	movq	(%rax), %rcx
	.loc 1 43 18
	movq	-8(%rbp), %rax
	movq	72(%rax), %rax
	subq	$24, %rax
	.loc 1 43 9
	movq	(%rax), %rax
	movq	%rcx, %rsi
	movq	%rax, %rdi
	call	mk_group@PLT
	.loc 1 43 7
	movq	-8(%rbp), %rdx
	movq	%rax, 64(%rdx)
	.loc 1 51 1
	nop
	leave
	.cfi_def_cfa 7, 8
	ret
	.cfi_endproc
.LFE232:
	.size	yy_1_Simp, .-yy_1_Simp
	.type	yy_4_Int, @function
yy_4_Int:
.LFB233:
	.loc 1 53 1
	.cfi_startproc
	endbr64
	pushq	%rbp
	.cfi_def_cfa_offset 16
	.cfi_offset 6, -16
	movq	%rsp, %rbp
	.cfi_def_cfa_register 6
	subq	$32, %rsp
1:	call	*mcount@GOTPCREL(%rip)
	movq	%rdi, -8(%rbp)
	movq	%rsi, -16(%rbp)
	movl	%edx, -20(%rbp)
	.loc 1 40 9
	movq	-16(%rbp), %rax
	movq	%rax, %rdi
	call	mk_op@PLT
	.loc 1 40 7
	movq	-8(%rbp), %rdx
	movq	%rax, 64(%rdx)
	.loc 1 48 1
	nop
	leave
	.cfi_def_cfa 7, 8
	ret
	.cfi_endproc
.LFE233:
	.size	yy_4_Int, .-yy_4_Int
	.type	yy_3_Int, @function
yy_3_Int:
.LFB234:
	.loc 1 50 1
	.cfi_startproc
	endbr64
	pushq	%rbp
	.cfi_def_cfa_offset 16
	.cfi_offset 6, -16
	movq	%rsp, %rbp
	.cfi_def_cfa_register 6
	subq	$32, %rsp
1:	call	*mcount@GOTPCREL(%rip)
	movq	%rdi, -8(%rbp)
	movq	%rsi, -16(%rbp)
	movl	%edx, -20(%rbp)
	.loc 1 38 20
	movq	-8(%rbp), %rax
	movq	72(%rax), %rax
	subq	$16, %rax
	.loc 1 38 9
	movq	(%rax), %rdx
	.loc 1 38 16
	movq	-8(%rbp), %rax
	movq	72(%rax), %rax
	subq	$24, %rax
	.loc 1 38 9
	movq	(%rax), %rax
	movq	%rdx, %rsi
	movq	%rax, %rdi
	call	mk_sup@PLT
	.loc 1 38 7
	movq	-8(%rbp), %rdx
	movq	%rax, 64(%rdx)
	.loc 1 46 1
	nop
	leave
	.cfi_def_cfa 7, 8
	ret
	.cfi_endproc
.LFE234:
	.size	yy_3_Int, .-yy_3_Int
	.type	yy_2_Int, @function
yy_2_Int:
.LFB235:
	.loc 1 48 1
	.cfi_startproc
	endbr64
	pushq	%rbp
	.cfi_def_cfa_offset 16
	.cfi_offset 6, -16
	movq	%rsp, %rbp
	.cfi_def_cfa_register 6
	subq	$32, %rsp
1:	call	*mcount@GOTPCREL(%rip)
	movq	%rdi, -8(%rbp)
	movq	%rsi, -16(%rbp)
	movl	%edx, -20(%rbp)
	.loc 1 37 20
	movq	-8(%rbp), %rax
	movq	72(%rax), %rax
	subq	$16, %rax
	.loc 1 37 9
	movq	(%rax), %rdx
	.loc 1 37 16
	movq	-8(%rbp), %rax
	movq	72(%rax), %rax
	subq	$24, %rax
	.loc 1 37 9
	movq	(%rax), %rax
	movq	%rdx, %rsi
	movq	%rax, %rdi
	call	mk_sub@PLT
	.loc 1 37 7
	movq	-8(%rbp), %rdx
	movq	%rax, 64(%rdx)
	.loc 1 45 1
	nop
	leave
	.cfi_def_cfa 7, 8
	ret
	.cfi_endproc
.LFE235:
	.size	yy_2_Int, .-yy_2_Int
	.type	yy_1_Int, @function
yy_1_Int:
.LFB236:
	.loc 1 47 1
	.cfi_startproc
	endbr64
	pushq	%rbp
	.cfi_def_cfa_offset 16
	.cfi_offset 6, -16
	movq	%rsp, %rbp
	.cfi_def_cfa_register 6
	subq	$32, %rsp
1:	call	*mcount@GOTPCREL(%rip)
	movq	%rdi, -8(%rbp)
	movq	%rsi, -16(%rbp)
	movl	%edx, -20(%rbp)
	.loc 1 36 24
	movq	-8(%rbp), %rax
	movq	72(%rax), %rax
	subq	$8, %rax
	.loc 1 36 9
	movq	(%rax), %rdx
	.loc 1 36 20
	movq	-8(%rbp), %rax
	movq	72(%rax), %rax
	subq	$16, %rax
	.loc 1 36 9
	movq	(%rax), %rcx
	.loc 1 36 16
	movq	-8(%rbp), %rax
	movq	72(%rax), %rax
	subq	$24, %rax
	.loc 1 36 9
	movq	(%rax), %rax
	movq	%rcx, %rsi
	movq	%rax, %rdi
	call	mk_ter@PLT
	.loc 1 36 7
	movq	-8(%rbp), %rdx
	movq	%rax, 64(%rdx)
	.loc 1 44 1
	nop
	leave
	.cfi_def_cfa 7, 8
	ret
	.cfi_endproc
.LFE236:
	.size	yy_1_Int, .-yy_1_Int
	.type	yy_1_E, @function
yy_1_E:
.LFB237:
	.loc 1 46 1
	.cfi_startproc
	endbr64
	pushq	%rbp
	.cfi_def_cfa_offset 16
	.cfi_offset 6, -16
	movq	%rsp, %rbp
	.cfi_def_cfa_register 6
	subq	$32, %rsp
1:	call	*mcount@GOTPCREL(%rip)
	movq	%rdi, -8(%rbp)
	movq	%rsi, -16(%rbp)
	movl	%edx, -20(%rbp)
	.loc 1 33 21
	movq	-8(%rbp), %rax
	movq	72(%rax), %rax
	subq	$8, %rax
	.loc 1 33 9
	movq	(%rax), %rdx
	.loc 1 33 17
	movq	-8(%rbp), %rax
	movq	72(%rax), %rax
	subq	$16, %rax
	.loc 1 33 9
	movq	(%rax), %rax
	movq	%rdx, %rsi
	movq	%rax, %rdi
	call	mk_frac@PLT
	.loc 1 33 7
	movq	-8(%rbp), %rdx
	movq	%rax, 64(%rdx)
	.loc 1 40 1
	nop
	leave
	.cfi_def_cfa 7, 8
	ret
	.cfi_endproc
.LFE237:
	.size	yy_1_E, .-yy_1_E
	.type	yy_2_Expr, @function
yy_2_Expr:
.LFB238:
	.loc 1 42 1
	.cfi_startproc
	endbr64
	pushq	%rbp
	.cfi_def_cfa_offset 16
	.cfi_offset 6, -16
	movq	%rsp, %rbp
	.cfi_def_cfa_register 6
	subq	$24, %rsp
1:	call	*mcount@GOTPCREL(%rip)
	movq	%rdi, -8(%rbp)
	movq	%rsi, -16(%rbp)
	movl	%edx, -20(%rbp)
	.loc 1 31 9
	movq	-8(%rbp), %rax
	movq	72(%rax), %rax
	.loc 1 31 7
	movq	-16(%rax), %rdx
	movq	-8(%rbp), %rax
	movq	%rdx, 64(%rax)
	.loc 1 38 1
	nop
	leave
	.cfi_def_cfa 7, 8
	ret
	.cfi_endproc
.LFE238:
	.size	yy_2_Expr, .-yy_2_Expr
	.type	yy_1_Expr, @function
yy_1_Expr:
.LFB239:
	.loc 1 40 1
	.cfi_startproc
	endbr64
	pushq	%rbp
	.cfi_def_cfa_offset 16
	.cfi_offset 6, -16
	movq	%rsp, %rbp
	.cfi_def_cfa_register 6
	pushq	%rbx
	subq	$40, %rsp
	.cfi_offset 3, -24
1:	call	*mcount@GOTPCREL(%rip)
	movq	%rdi, -24(%rbp)
	movq	%rsi, -32(%rbp)
	movl	%edx, -36(%rbp)
	.loc 1 30 23
	movq	-24(%rbp), %rax
	movq	72(%rax), %rax
	subq	$8, %rax
	.loc 1 30 9
	movq	(%rax), %rdx
	.loc 1 30 19
	movq	-24(%rbp), %rax
	movq	72(%rax), %rax
	subq	$16, %rax
	.loc 1 30 9
	movq	(%rax), %rax
	.loc 1 30 4
	movq	-24(%rbp), %rcx
	movq	72(%rcx), %rcx
	leaq	-16(%rcx), %rbx
	.loc 1 30 9
	movq	%rdx, %rsi
	movq	%rax, %rdi
	call	mk_concat@PLT
	.loc 1 30 7
	movq	%rax, (%rbx)
	.loc 1 37 1
	nop
	addq	$40, %rsp
	popq	%rbx
	popq	%rbp
	.cfi_def_cfa 7, 8
	ret
	.cfi_endproc
.LFE239:
	.size	yy_1_Expr, .-yy_1_Expr
	.type	yy_2_Start, @function
yy_2_Start:
.LFB240:
	.loc 1 39 1
	.cfi_startproc
	endbr64
	pushq	%rbp
	.cfi_def_cfa_offset 16
	.cfi_offset 6, -16
	movq	%rsp, %rbp
	.cfi_def_cfa_register 6
	pushq	%rbx
	subq	$40, %rsp
	.cfi_offset 3, -24
1:	call	*mcount@GOTPCREL(%rip)
	movq	%rdi, -24(%rbp)
	movq	%rsi, -32(%rbp)
	movl	%edx, -36(%rbp)
	.loc 1 24 26
	movq	-24(%rbp), %rax
	movq	96(%rax), %rax
	.loc 1 24 33
	movq	8(%rax), %rbx
	.loc 1 24 50
	movq	-32(%rbp), %rax
	movq	%rax, %rdi
	call	merror@PLT
	.loc 1 24 48
	movq	%rax, 8(%rbx)
	.loc 1 30 1
	nop
	addq	$40, %rsp
	popq	%rbx
	popq	%rbp
	.cfi_def_cfa 7, 8
	ret
	.cfi_endproc
.LFE240:
	.size	yy_2_Start, .-yy_2_Start
	.type	yy_1_Start, @function
yy_1_Start:
.LFB241:
	.loc 1 32 1
	.cfi_startproc
	endbr64
	pushq	%rbp
	.cfi_def_cfa_offset 16
	.cfi_offset 6, -16
	movq	%rsp, %rbp
	.cfi_def_cfa_register 6
	pushq	%rbx
	subq	$40, %rsp
	.cfi_offset 3, -24
1:	call	*mcount@GOTPCREL(%rip)
	movq	%rdi, -24(%rbp)
	movq	%rsi, -32(%rbp)
	movl	%edx, -36(%rbp)
	.loc 1 23 57
	movq	-24(%rbp), %rax
	movq	72(%rax), %rax
	subq	$8, %rax
	movq	(%rax), %rax
	.loc 1 23 59
	movq	8(%rax), %rax
	.loc 1 23 26
	movq	-24(%rbp), %rdx
	movq	96(%rdx), %rdx
	.loc 1 23 33
	movq	8(%rdx), %rbx
	.loc 1 23 50
	movq	%rax, %rdi
	call	strdup@PLT
	.loc 1 23 48
	movq	%rax, 8(%rbx)
	.loc 1 23 78
	movq	-24(%rbp), %rax
	movq	72(%rax), %rax
	subq	$8, %rax
	.loc 1 23 68
	movq	(%rax), %rax
	movq	%rax, %rdi
	call	free_node@PLT
	.loc 1 29 1
	nop
	addq	$40, %rsp
	popq	%rbx
	popq	%rbp
	.cfi_def_cfa 7, 8
	ret
	.cfi_endproc
.LFE241:
	.size	yy_1_Start, .-yy_1_Start
	.type	yy_Color, @function
yy_Color:
.LFB242:
	.loc 1 32 1
	.cfi_startproc
	endbr64
	pushq	%rbp
	.cfi_def_cfa_offset 16
	.cfi_offset 6, -16
	movq	%rsp, %rbp
	.cfi_def_cfa_register 6
	subq	$48, %rsp
1:	call	*mcount@GOTPCREL(%rip)
	movq	%rdi, -40(%rbp)
	.loc 1 32 8
	movq	-40(%rbp), %rax
	movl	12(%rax), %eax
	movl	%eax, -24(%rbp)
	.loc 1 32 27
	movq	-40(%rbp), %rax
	movl	60(%rax), %eax
	movl	%eax, -20(%rbp)
	.loc 1 32 57
	movq	-40(%rbp), %rax
	movl	$0, %ecx
	movl	$2, %edx
	leaq	yyPush(%rip), %rsi
	movq	%rax, %rdi
	call	yyDo
	.loc 1 33 46
	movq	-40(%rbp), %rax
	movq	%rax, %rdi
	call	yy_Left
	.loc 1 33 44
	testl	%eax, %eax
	je	.L284
	.loc 1 33 69 discriminator 2
	movq	-40(%rbp), %rax
	movl	$0, %ecx
	movl	$-2, %edx
	leaq	yySet(%rip), %rsi
	movq	%rax, %rdi
	call	yyDo
	.loc 1 33 99 discriminator 2
	movq	-40(%rbp), %rax
	movq	%rax, %rdi
	call	yy__
	.loc 1 33 97 discriminator 2
	testl	%eax, %eax
	je	.L285
	.loc 1 33 119 discriminator 4
	movq	-40(%rbp), %rax
	movl	40(%rax), %edx
	movq	-40(%rbp), %rax
	movl	36(%rax), %ecx
	movq	-40(%rbp), %rax
	movl	%ecx, %esi
	movq	%rax, %rdi
	call	yyText
	.loc 1 36 7 discriminator 4
	movq	-40(%rbp), %rax
	movl	12(%rax), %edx
	movq	-40(%rbp), %rax
	movl	%edx, 36(%rax)
	.loc 1 40 3 discriminator 4
	nop
.L276:
.LBB4:
	.loc 1 41 10
	movq	-40(%rbp), %rax
	movl	12(%rax), %eax
	movl	%eax, -16(%rbp)
	.loc 1 41 29
	movq	-40(%rbp), %rax
	movl	60(%rax), %eax
	movl	%eax, -12(%rbp)
.LBB5:
	.loc 1 42 10
	movq	-40(%rbp), %rax
	movl	12(%rax), %eax
	movl	%eax, -8(%rbp)
	.loc 1 42 29
	movq	-40(%rbp), %rax
	movl	60(%rax), %eax
	movl	%eax, -4(%rbp)
	.loc 1 42 64
	movq	-40(%rbp), %rax
	movq	%rax, %rdi
	call	yy_Right
	.loc 1 42 62
	testl	%eax, %eax
	jne	.L286
	.loc 1 42 78 discriminator 1
	nop
.L278:
	endbr64
	.loc 1 43 19 discriminator 1
	movq	-40(%rbp), %rax
	movl	-8(%rbp), %edx
	movl	%edx, 12(%rax)
	.loc 1 43 43 discriminator 1
	movq	-40(%rbp), %rax
	movl	-4(%rbp), %edx
	movl	%edx, 60(%rax)
.LBE5:
	.loc 1 44 11 discriminator 1
	movq	-40(%rbp), %rax
	movq	%rax, %rdi
	call	yymatchDot
	.loc 1 44 9 discriminator 1
	testl	%eax, %eax
	je	.L287
	.loc 1 44 37 discriminator 2
	jmp	.L276
.L286:
.LBB6:
	.loc 1 42 88
	nop
	jmp	.L279
.L287:
.LBE6:
	.loc 1 44 27
	nop
.L279:
	.loc 1 45 19
	movq	-40(%rbp), %rax
	movl	-16(%rbp), %edx
	movl	%edx, 12(%rax)
	.loc 1 45 43
	movq	-40(%rbp), %rax
	movl	-12(%rbp), %edx
	movl	%edx, 60(%rax)
.LBE4:
	.loc 1 46 6
	movq	-40(%rbp), %rax
	movl	40(%rax), %edx
	movq	-40(%rbp), %rax
	movl	36(%rax), %ecx
	movq	-40(%rbp), %rax
	movl	%ecx, %esi
	movq	%rax, %rdi
	call	yyText
	.loc 1 49 7
	movq	-40(%rbp), %rax
	movl	12(%rax), %edx
	movq	-40(%rbp), %rax
	movl	%edx, 40(%rax)
	.loc 1 52 11
	movq	-40(%rbp), %rax
	movq	%rax, %rdi
	call	yy__
	.loc 1 52 9
	testl	%eax, %eax
	je	.L288
	.loc 1 52 36 discriminator 2
	movq	-40(%rbp), %rax
	movq	%rax, %rdi
	call	yy_Right
	.loc 1 52 34 discriminator 2
	testl	%eax, %eax
	je	.L289
	.loc 1 52 60 discriminator 4
	movq	-40(%rbp), %rax
	movl	$0, %ecx
	movl	$-1, %edx
	leaq	yySet(%rip), %rsi
	movq	%rax, %rdi
	call	yyDo
	.loc 1 52 85 discriminator 4
	movq	-40(%rbp), %rax
	movl	40(%rax), %ecx
	movq	-40(%rbp), %rax
	movl	36(%rax), %edx
	movq	-40(%rbp), %rax
	leaq	yy_1_Color(%rip), %rsi
	movq	%rax, %rdi
	call	yyDo
	.loc 1 53 74 discriminator 4
	movq	-40(%rbp), %rax
	movl	$0, %ecx
	movl	$2, %edx
	leaq	yyPop(%rip), %rsi
	movq	%rax, %rdi
	call	yyDo
	.loc 1 54 10 discriminator 4
	movl	$1, %eax
	jmp	.L283
.L284:
	.loc 1 33 59
	nop
	jmp	.L274
.L285:
	.loc 1 33 109
	nop
	jmp	.L274
.L288:
	.loc 1 52 21
	nop
	jmp	.L274
.L289:
	.loc 1 52 50
	nop
.L274:
	.loc 1 55 19
	movq	-40(%rbp), %rax
	movl	-24(%rbp), %edx
	movl	%edx, 12(%rax)
	.loc 1 55 43
	movq	-40(%rbp), %rax
	movl	-20(%rbp), %edx
	movl	%edx, 60(%rax)
	.loc 1 57 10
	movl	$0, %eax
.L283:
	.loc 1 58 1
	leave
	.cfi_def_cfa 7, 8
	ret
	.cfi_endproc
.LFE242:
	.size	yy_Color, .-yy_Color
	.type	yy_Row, @function
yy_Row:
.LFB243:
	.loc 1 60 1
	.cfi_startproc
	endbr64
	pushq	%rbp
	.cfi_def_cfa_offset 16
	.cfi_offset 6, -16
	movq	%rsp, %rbp
	.cfi_def_cfa_register 6
	subq	$32, %rsp
1:	call	*mcount@GOTPCREL(%rip)
	movq	%rdi, -24(%rbp)
	.loc 1 60 8
	movq	-24(%rbp), %rax
	movl	12(%rax), %eax
	movl	%eax, -16(%rbp)
	.loc 1 60 27
	movq	-24(%rbp), %rax
	movl	60(%rax), %eax
	movl	%eax, -12(%rbp)
	.loc 1 60 57
	movq	-24(%rbp), %rax
	movl	$0, %ecx
	movl	$4, %edx
	leaq	yyPush(%rip), %rsi
	movq	%rax, %rdi
	call	yyDo
	.loc 1 61 44
	movq	-24(%rbp), %rax
	movq	%rax, %rdi
	call	yy_Left
	.loc 1 61 42
	testl	%eax, %eax
	je	.L305
	.loc 1 61 67 discriminator 2
	movq	-24(%rbp), %rax
	movl	$0, %ecx
	movl	$-4, %edx
	leaq	yySet(%rip), %rsi
	movq	%rax, %rdi
	call	yyDo
	.loc 1 61 97 discriminator 2
	movq	-24(%rbp), %rax
	movq	%rax, %rdi
	call	yy__
	.loc 1 61 95 discriminator 2
	testl	%eax, %eax
	je	.L306
	.loc 1 61 122 discriminator 4
	movq	-24(%rbp), %rax
	movq	%rax, %rdi
	call	yy_ExprM
	.loc 1 61 120 discriminator 4
	testl	%eax, %eax
	je	.L307
	.loc 1 61 146 discriminator 6
	movq	-24(%rbp), %rax
	movl	$0, %ecx
	movl	$-3, %edx
	leaq	yySet(%rip), %rsi
	movq	%rax, %rdi
	call	yyDo
	.loc 1 61 176 discriminator 6
	movq	-24(%rbp), %rax
	movq	%rax, %rdi
	call	yy__
	.loc 1 61 174 discriminator 6
	testl	%eax, %eax
	je	.L308
	.loc 1 61 196 discriminator 8
	movq	-24(%rbp), %rax
	movl	40(%rax), %ecx
	movq	-24(%rbp), %rax
	movl	36(%rax), %edx
	movq	-24(%rbp), %rax
	leaq	yy_1_Row(%rip), %rsi
	movq	%rax, %rdi
	call	yyDo
.L296:
.LBB7:
	.loc 1 63 10 discriminator 9
	movq	-24(%rbp), %rax
	movl	12(%rax), %eax
	movl	%eax, -8(%rbp)
	.loc 1 63 29 discriminator 9
	movq	-24(%rbp), %rax
	movl	60(%rax), %eax
	movl	%eax, -4(%rbp)
	.loc 1 63 64 discriminator 9
	movq	-24(%rbp), %rax
	movl	$44, %esi
	movq	%rax, %rdi
	call	yymatchChar
	.loc 1 63 62 discriminator 9
	testl	%eax, %eax
	je	.L309
	.loc 1 63 101 discriminator 2
	movq	-24(%rbp), %rax
	movq	%rax, %rdi
	call	yy__
	.loc 1 63 99 discriminator 2
	testl	%eax, %eax
	je	.L310
	.loc 1 63 126 discriminator 4
	movq	-24(%rbp), %rax
	movq	%rax, %rdi
	call	yy_ExprM
	.loc 1 63 124 discriminator 4
	testl	%eax, %eax
	je	.L311
	.loc 1 63 150 discriminator 6
	movq	-24(%rbp), %rax
	movl	$0, %ecx
	movl	$-2, %edx
	leaq	yySet(%rip), %rsi
	movq	%rax, %rdi
	call	yyDo
	.loc 1 63 180 discriminator 6
	movq	-24(%rbp), %rax
	movq	%rax, %rdi
	call	yy__
	.loc 1 63 178 discriminator 6
	testl	%eax, %eax
	je	.L312
	.loc 1 63 200 discriminator 8
	movq	-24(%rbp), %rax
	movl	40(%rax), %ecx
	movq	-24(%rbp), %rax
	movl	36(%rax), %edx
	movq	-24(%rbp), %rax
	leaq	yy_2_Row(%rip), %rsi
	movq	%rax, %rdi
	call	yyDo
	.loc 1 63 245 discriminator 8
	jmp	.L296
.L309:
	.loc 1 63 86
	nop
	jmp	.L298
.L310:
	.loc 1 63 111
	nop
	jmp	.L298
.L311:
	.loc 1 63 140
	nop
	jmp	.L298
.L312:
	.loc 1 63 190
	nop
.L298:
	.loc 1 64 19
	movq	-24(%rbp), %rax
	movl	-8(%rbp), %edx
	movl	%edx, 12(%rax)
	.loc 1 64 43
	movq	-24(%rbp), %rax
	movl	-4(%rbp), %edx
	movl	%edx, 60(%rax)
.LBE7:
	.loc 1 65 11
	movq	-24(%rbp), %rax
	movq	%rax, %rdi
	call	yy__
	.loc 1 65 9
	testl	%eax, %eax
	je	.L313
	.loc 1 65 36 discriminator 2
	movq	-24(%rbp), %rax
	movq	%rax, %rdi
	call	yy_Right
	.loc 1 65 34 discriminator 2
	testl	%eax, %eax
	je	.L314
	.loc 1 65 60 discriminator 4
	movq	-24(%rbp), %rax
	movl	$0, %ecx
	movl	$-1, %edx
	leaq	yySet(%rip), %rsi
	movq	%rax, %rdi
	call	yyDo
	.loc 1 65 85 discriminator 4
	movq	-24(%rbp), %rax
	movl	40(%rax), %ecx
	movq	-24(%rbp), %rax
	movl	36(%rax), %edx
	movq	-24(%rbp), %rax
	leaq	yy_3_Row(%rip), %rsi
	movq	%rax, %rdi
	call	yyDo
	.loc 1 66 72 discriminator 4
	movq	-24(%rbp), %rax
	movl	$0, %ecx
	movl	$4, %edx
	leaq	yyPop(%rip), %rsi
	movq	%rax, %rdi
	call	yyDo
	.loc 1 67 10 discriminator 4
	movl	$1, %eax
	jmp	.L304
.L305:
	.loc 1 61 57
	nop
	jmp	.L292
.L306:
	.loc 1 61 107
	nop
	jmp	.L292
.L307:
	.loc 1 61 136
	nop
	jmp	.L292
.L308:
	.loc 1 61 186
	nop
	jmp	.L292
.L313:
	.loc 1 65 21
	nop
	jmp	.L292
.L314:
	.loc 1 65 50
	nop
.L292:
	.loc 1 68 19
	movq	-24(%rbp), %rax
	movl	-16(%rbp), %edx
	movl	%edx, 12(%rax)
	.loc 1 68 43
	movq	-24(%rbp), %rax
	movl	-12(%rbp), %edx
	movl	%edx, 60(%rax)
	.loc 1 70 10
	movl	$0, %eax
.L304:
	.loc 1 71 1
	leave
	.cfi_def_cfa 7, 8
	ret
	.cfi_endproc
.LFE243:
	.size	yy_Row, .-yy_Row
	.type	yy_ExprM, @function
yy_ExprM:
.LFB244:
	.loc 1 73 1
	.cfi_startproc
	endbr64
	pushq	%rbp
	.cfi_def_cfa_offset 16
	.cfi_offset 6, -16
	movq	%rsp, %rbp
	.cfi_def_cfa_register 6
	subq	$32, %rsp
1:	call	*mcount@GOTPCREL(%rip)
	movq	%rdi, -24(%rbp)
	.loc 1 73 8
	movq	-24(%rbp), %rax
	movl	12(%rax), %eax
	movl	%eax, -16(%rbp)
	.loc 1 73 27
	movq	-24(%rbp), %rax
	movl	60(%rax), %eax
	movl	%eax, -12(%rbp)
	.loc 1 73 57
	movq	-24(%rbp), %rax
	movl	$0, %ecx
	movl	$2, %edx
	leaq	yyPush(%rip), %rsi
	movq	%rax, %rdi
	call	yyDo
	.loc 1 74 46
	movq	-24(%rbp), %rax
	movq	%rax, %rdi
	call	yy__
	.loc 1 74 44
	testl	%eax, %eax
	je	.L326
	.loc 1 74 71 discriminator 2
	movq	-24(%rbp), %rax
	movq	%rax, %rdi
	call	yy_IntM
	.loc 1 74 69 discriminator 2
	testl	%eax, %eax
	je	.L327
	.loc 1 74 94 discriminator 4
	movq	-24(%rbp), %rax
	movl	$0, %ecx
	movl	$-2, %edx
	leaq	yySet(%rip), %rsi
	movq	%rax, %rdi
	call	yyDo
.L319:
.LBB8:
	.loc 1 76 10 discriminator 7
	movq	-24(%rbp), %rax
	movl	12(%rax), %eax
	movl	%eax, -8(%rbp)
	.loc 1 76 30 discriminator 7
	movq	-24(%rbp), %rax
	movl	60(%rax), %eax
	movl	%eax, -4(%rbp)
	.loc 1 76 66 discriminator 7
	movq	-24(%rbp), %rax
	movq	%rax, %rdi
	call	yy__
	.loc 1 76 64 discriminator 7
	testl	%eax, %eax
	je	.L328
	.loc 1 76 92 discriminator 2
	movq	-24(%rbp), %rax
	movq	%rax, %rdi
	call	yy_IntM
	.loc 1 76 90 discriminator 2
	testl	%eax, %eax
	je	.L329
	.loc 1 76 116 discriminator 4
	movq	-24(%rbp), %rax
	movl	$0, %ecx
	movl	$-1, %edx
	leaq	yySet(%rip), %rsi
	movq	%rax, %rdi
	call	yyDo
	.loc 1 76 146 discriminator 4
	movq	-24(%rbp), %rax
	movq	%rax, %rdi
	call	yy__
	.loc 1 76 144 discriminator 4
	testl	%eax, %eax
	je	.L330
	.loc 1 76 167 discriminator 6
	movq	-24(%rbp), %rax
	movl	40(%rax), %ecx
	movq	-24(%rbp), %rax
	movl	36(%rax), %edx
	movq	-24(%rbp), %rax
	leaq	yy_1_ExprM(%rip), %rsi
	movq	%rax, %rdi
	call	yyDo
	.loc 1 76 214 discriminator 6
	jmp	.L319
.L328:
	.loc 1 76 76
	nop
	jmp	.L321
.L329:
	.loc 1 76 105
	nop
	jmp	.L321
.L330:
	.loc 1 76 156
	nop
.L321:
	.loc 1 77 20
	movq	-24(%rbp), %rax
	movl	-8(%rbp), %edx
	movl	%edx, 12(%rax)
	.loc 1 77 45
	movq	-24(%rbp), %rax
	movl	-4(%rbp), %edx
	movl	%edx, 60(%rax)
.LBE8:
	.loc 1 78 11
	movq	-24(%rbp), %rax
	movq	%rax, %rdi
	call	yy__
	.loc 1 78 9
	testl	%eax, %eax
	je	.L331
	.loc 1 78 31 discriminator 2
	movq	-24(%rbp), %rax
	movl	40(%rax), %ecx
	movq	-24(%rbp), %rax
	movl	36(%rax), %edx
	movq	-24(%rbp), %rax
	leaq	yy_2_ExprM(%rip), %rsi
	movq	%rax, %rdi
	call	yyDo
	.loc 1 79 74 discriminator 2
	movq	-24(%rbp), %rax
	movl	$0, %ecx
	movl	$2, %edx
	leaq	yyPop(%rip), %rsi
	movq	%rax, %rdi
	call	yyDo
	.loc 1 80 10 discriminator 2
	movl	$1, %eax
	jmp	.L325
.L326:
	.loc 1 74 56
	nop
	jmp	.L317
.L327:
	.loc 1 74 84
	nop
	jmp	.L317
.L331:
	.loc 1 78 21
	nop
.L317:
	.loc 1 81 19
	movq	-24(%rbp), %rax
	movl	-16(%rbp), %edx
	movl	%edx, 12(%rax)
	.loc 1 81 43
	movq	-24(%rbp), %rax
	movl	-12(%rbp), %edx
	movl	%edx, 60(%rax)
	.loc 1 83 10
	movl	$0, %eax
.L325:
	.loc 1 84 1
	leave
	.cfi_def_cfa 7, 8
	ret
	.cfi_endproc
.LFE244:
	.size	yy_ExprM, .-yy_ExprM
	.type	yy_IntM, @function
yy_IntM:
.LFB245:
	.loc 1 86 1
	.cfi_startproc
	endbr64
	pushq	%rbp
	.cfi_def_cfa_offset 16
	.cfi_offset 6, -16
	movq	%rsp, %rbp
	.cfi_def_cfa_register 6
	subq	$32, %rsp
1:	call	*mcount@GOTPCREL(%rip)
	movq	%rdi, -24(%rbp)
	.loc 1 86 8
	movq	-24(%rbp), %rax
	movl	12(%rax), %eax
	movl	%eax, -16(%rbp)
	.loc 1 86 27
	movq	-24(%rbp), %rax
	movl	60(%rax), %eax
	movl	%eax, -12(%rbp)
.LBB9:
	.loc 1 88 10
	movq	-24(%rbp), %rax
	movl	12(%rax), %eax
	movl	%eax, -8(%rbp)
	.loc 1 88 30
	movq	-24(%rbp), %rax
	movl	60(%rax), %eax
	movl	%eax, -4(%rbp)
	.loc 1 88 66
	movq	-24(%rbp), %rax
	movl	$44, %esi
	movq	%rax, %rdi
	call	yymatchChar
	.loc 1 88 64
	testl	%eax, %eax
	jne	.L338
	.loc 1 88 88 discriminator 1
	nop
.L334:
	endbr64
	.loc 1 89 20 discriminator 1
	movq	-24(%rbp), %rax
	movl	-8(%rbp), %edx
	movl	%edx, 12(%rax)
	.loc 1 89 45 discriminator 1
	movq	-24(%rbp), %rax
	movl	-4(%rbp), %edx
	movl	%edx, 60(%rax)
.LBE9:
	.loc 1 90 11 discriminator 1
	movq	-24(%rbp), %rax
	movq	%rax, %rdi
	call	yy_IntG
	.loc 1 90 9 discriminator 1
	testl	%eax, %eax
	je	.L339
	.loc 1 92 10
	movl	$1, %eax
	jmp	.L337
.L338:
.LBB10:
	.loc 1 88 99
	nop
	jmp	.L335
.L339:
.LBE10:
	.loc 1 90 24
	nop
.L335:
	.loc 1 93 20
	movq	-24(%rbp), %rax
	movl	-16(%rbp), %edx
	movl	%edx, 12(%rax)
	.loc 1 93 44
	movq	-24(%rbp), %rax
	movl	-12(%rbp), %edx
	movl	%edx, 60(%rax)
	.loc 1 95 10
	movl	$0, %eax
.L337:
	.loc 1 96 1
	leave
	.cfi_def_cfa 7, 8
	ret
	.cfi_endproc
.LFE245:
	.size	yy_IntM, .-yy_IntM
	.type	yy_IntG, @function
yy_IntG:
.LFB246:
	.loc 1 98 1
	.cfi_startproc
	endbr64
	pushq	%rbp
	.cfi_def_cfa_offset 16
	.cfi_offset 6, -16
	movq	%rsp, %rbp
	.cfi_def_cfa_register 6
	subq	$32, %rsp
1:	call	*mcount@GOTPCREL(%rip)
	movq	%rdi, -24(%rbp)
	.loc 1 98 8
	movq	-24(%rbp), %rax
	movl	12(%rax), %eax
	movl	%eax, -16(%rbp)
	.loc 1 98 27
	movq	-24(%rbp), %rax
	movl	60(%rax), %eax
	movl	%eax, -12(%rbp)
.LBB11:
	.loc 1 100 10
	movq	-24(%rbp), %rax
	movl	12(%rax), %eax
	movl	%eax, -8(%rbp)
	.loc 1 100 30
	movq	-24(%rbp), %rax
	movl	60(%rax), %eax
	movl	%eax, -4(%rbp)
	.loc 1 100 66
	movq	-24(%rbp), %rax
	movq	%rax, %rdi
	call	yy_Right
	.loc 1 100 64
	testl	%eax, %eax
	jne	.L346
	.loc 1 100 80 discriminator 1
	nop
.L342:
	endbr64
	.loc 1 101 20 discriminator 1
	movq	-24(%rbp), %rax
	movl	-8(%rbp), %edx
	movl	%edx, 12(%rax)
	.loc 1 101 45 discriminator 1
	movq	-24(%rbp), %rax
	movl	-4(%rbp), %edx
	movl	%edx, 60(%rax)
.LBE11:
	.loc 1 102 11 discriminator 1
	movq	-24(%rbp), %rax
	movq	%rax, %rdi
	call	yy_E
	.loc 1 102 9 discriminator 1
	testl	%eax, %eax
	je	.L347
	.loc 1 104 10
	movl	$1, %eax
	jmp	.L345
.L346:
.LBB12:
	.loc 1 100 91
	nop
	jmp	.L343
.L347:
.LBE12:
	.loc 1 102 21
	nop
.L343:
	.loc 1 105 20
	movq	-24(%rbp), %rax
	movl	-16(%rbp), %edx
	movl	%edx, 12(%rax)
	.loc 1 105 44
	movq	-24(%rbp), %rax
	movl	-12(%rbp), %edx
	movl	%edx, 60(%rax)
	.loc 1 107 10
	movl	$0, %eax
.L345:
	.loc 1 108 1
	leave
	.cfi_def_cfa 7, 8
	ret
	.cfi_endproc
.LFE246:
	.size	yy_IntG, .-yy_IntG
	.section	.rodata
.LC167:
	.string	"uarr"
.LC168:
	.string	"uparrow"
.LC169:
	.string	"darr"
.LC170:
	.string	"downarrow"
.LC171:
	.string	"larr"
.LC172:
	.string	"leftarrow"
.LC173:
	.string	"rarr"
.LC174:
	.string	"rightarrow"
.LC175:
	.string	"harr"
.LC176:
	.string	"rArr"
.LC177:
	.string	"Rightarrow"
.LC178:
	.string	"lArr"
.LC179:
	.string	"Leftarrow"
.LC180:
	.string	"hArr"
.LC181:
	.string	"|->"
.LC182:
	.string	"mapsto"
.LC183:
	.string	">->>"
.LC184:
	.string	">->"
.LC185:
	.string	"->>"
.LC186:
	.string	"->"
.LC187:
	.string	"to"
.LC188:
	.string	"twoheadrightarrowtail"
.LC189:
	.string	"rightarrowtail"
.LC190:
	.string	"twoheadrightarrow"
.LC191:
	.string	"leftrightarrow"
.LC192:
	.string	"Leftrightarrow"
.LC193:
	.string	"not"
.LC194:
	.string	"neg"
.LC195:
	.string	"=>"
.LC196:
	.string	"implies"
.LC197:
	.string	"<=>"
.LC198:
	.string	"iff"
.LC199:
	.string	"AA"
.LC200:
	.string	"forall"
.LC201:
	.string	"EE"
.LC202:
	.string	"exists"
.LC203:
	.string	"_|_"
.LC204:
	.string	"bot"
.LC205:
	.string	"TT"
.LC206:
	.string	"top"
.LC207:
	.string	"|--"
.LC208:
	.string	"vdash"
.LC209:
	.string	"|=="
.LC210:
	.string	"models"
.LC211:
	.string	"int"
.LC212:
	.string	"oint"
.LC213:
	.string	"del"
.LC214:
	.string	"partial"
.LC215:
	.string	"grad"
.LC216:
	.string	"nabla"
.LC217:
	.string	"+-"
.LC218:
	.string	"pm"
.LC219:
	.string	"O/"
.LC220:
	.string	"emptyset"
.LC221:
	.string	"oo"
.LC222:
	.string	"infty"
.LC223:
	.string	"aleph"
.LC224:
	.string	"..."
.LC225:
	.string	"ldots"
.LC226:
	.string	":."
.LC227:
	.string	"therefore"
.LC228:
	.string	"/_\\"
.LC229:
	.string	"triangle"
.LC230:
	.string	"/_"
.LC231:
	.string	"angle"
.LC232:
	.string	"prime"
.LC233:
	.string	"\\ "
.LC234:
	.string	"frown"
.LC235:
	.string	"quad"
.LC236:
	.string	"qquad"
.LC237:
	.string	"cdots"
.LC238:
	.string	"vdots"
.LC239:
	.string	"ddots"
.LC240:
	.string	"diamond"
.LC241:
	.string	"square"
.LC242:
	.string	"|__"
.LC243:
	.string	"lfloor"
.LC244:
	.string	"__|"
.LC245:
	.string	"rfloor"
.LC246:
	.string	"|~"
.LC247:
	.string	"lceiling"
.LC248:
	.string	"~|"
.LC249:
	.string	"rceiling"
.LC250:
	.string	"CC"
.LC251:
	.string	"NN"
.LC252:
	.string	"QQ"
.LC253:
	.string	"RR"
.LC254:
	.string	"ZZ"
.LC255:
	.string	"qed"
.LC256:
	.string	"!="
.LC257:
	.string	"ne"
.LC258:
	.string	":="
.LC259:
	.string	"-<="
.LC260:
	.string	"preceq"
.LC261:
	.string	"-<"
.LC262:
	.string	"prec"
.LC263:
	.string	"<="
.LC264:
	.string	"le"
.LC265:
	.string	"lt="
.LC266:
	.string	"leq"
.LC267:
	.string	"><|"
.LC268:
	.string	"rtimes"
.LC269:
	.string	">="
.LC270:
	.string	"ge"
.LC271:
	.string	"gt="
.LC272:
	.string	"geq"
.LC273:
	.string	">-="
.LC274:
	.string	"succeq"
.LC275:
	.string	">-"
.LC276:
	.string	"succ"
.LC277:
	.string	"in"
.LC278:
	.string	"!in"
.LC279:
	.string	"notin"
.LC280:
	.string	"sube"
.LC281:
	.string	"subseteq"
.LC282:
	.string	"sub"
.LC283:
	.string	"subset"
.LC284:
	.string	"supe"
.LC285:
	.string	"supseteq"
.LC286:
	.string	"sup"
.LC287:
	.string	"supset"
.LC288:
	.string	"-="
.LC289:
	.string	"equiv"
.LC290:
	.string	"~="
.LC291:
	.string	"cong"
.LC292:
	.string	"~~"
.LC293:
	.string	"approx"
.LC294:
	.string	"prop"
.LC295:
	.string	"propto"
.LC296:
	.string	"nsube"
.LC297:
	.string	"nsupe"
.LC298:
	.string	"nsub"
.LC299:
	.string	"nsup"
.LC300:
	.string	"ni"
.LC301:
	.string	"nni"
.LC302:
	.string	"||"
.LC303:
	.string	"sum"
.LC304:
	.string	"prod"
.LC305:
	.string	"^^^"
.LC306:
	.string	"bigwedge"
.LC307:
	.string	"vvv"
.LC308:
	.string	"bigvee"
.LC309:
	.string	"nnn"
.LC310:
	.string	"bigcap"
.LC311:
	.string	"uuu"
.LC312:
	.string	"bigcup"
.LC313:
	.string	"-:"
.LC314:
	.string	"div"
.LC315:
	.string	"***"
.LC316:
	.string	"star"
.LC317:
	.string	"**"
.LC318:
	.string	"ast"
.LC319:
	.string	"cdot"
.LC320:
	.string	"//"
.LC321:
	.string	"\\\\"
.LC322:
	.string	"backslash"
.LC323:
	.string	"|><|"
.LC324:
	.string	"bowtie"
.LC325:
	.string	"|><"
.LC326:
	.string	"ltimes"
.LC327:
	.string	"xx"
.LC328:
	.string	"times"
.LC329:
	.string	"circ"
.LC330:
	.string	"o+"
.LC331:
	.string	"oplus"
.LC332:
	.string	"ox"
.LC333:
	.string	"otimes"
.LC334:
	.string	"o."
.LC335:
	.string	"odot"
.LC336:
	.string	"^^"
.LC337:
	.string	"wedge"
.LC338:
	.string	"vv"
.LC339:
	.string	"vee"
.LC340:
	.string	"nn"
.LC341:
	.string	"cap"
.LC342:
	.string	"uu"
.LC343:
	.string	"cup"
	.text
	.type	yy_Op, @function
yy_Op:
.LFB247:
	.loc 1 110 1
	.cfi_startproc
	endbr64
	pushq	%rbp
	.cfi_def_cfa_offset 16
	.cfi_offset 6, -16
	movq	%rsp, %rbp
	.cfi_def_cfa_register 6
	subq	$592, %rsp
1:	call	*mcount@GOTPCREL(%rip)
	movq	%rdi, -584(%rbp)
	.loc 1 110 8
	movq	-584(%rbp), %rax
	movl	12(%rax), %eax
	movl	%eax, -568(%rbp)
	.loc 1 110 27
	movq	-584(%rbp), %rax
	movl	60(%rax), %eax
	movl	%eax, -564(%rbp)
.LBB13:
	.loc 1 112 10
	movq	-584(%rbp), %rax
	movl	12(%rax), %eax
	movl	%eax, -560(%rbp)
	.loc 1 112 30
	movq	-584(%rbp), %rax
	movl	60(%rax), %eax
	movl	%eax, -556(%rbp)
.LBB14:
	.loc 1 113 10
	movq	-584(%rbp), %rax
	movl	12(%rax), %eax
	movl	%eax, -552(%rbp)
	.loc 1 113 30
	movq	-584(%rbp), %rax
	movl	60(%rax), %eax
	movl	%eax, -548(%rbp)
	.loc 1 113 66
	movq	-584(%rbp), %rax
	leaq	.LC167(%rip), %rsi
	movq	%rax, %rdi
	call	yymatchString
	.loc 1 113 64
	testl	%eax, %eax
	jne	.L862
	.loc 1 113 93 discriminator 1
	nop
.L350:
	endbr64
	.loc 1 114 20 discriminator 1
	movq	-584(%rbp), %rax
	movl	-552(%rbp), %edx
	movl	%edx, 12(%rax)
	.loc 1 114 45 discriminator 1
	movq	-584(%rbp), %rax
	movl	-548(%rbp), %edx
	movl	%edx, 60(%rax)
	.loc 1 114 67 discriminator 1
	movq	-584(%rbp), %rax
	leaq	.LC168(%rip), %rsi
	movq	%rax, %rdi
	call	yymatchString
	.loc 1 114 65 discriminator 1
	testl	%eax, %eax
	je	.L863
.LBE14:
	.loc 1 116 3
	jmp	.L351
.L862:
.LBB15:
	.loc 1 113 104
	nop
.L351:
.LBE15:
	.loc 1 116 11
	movq	-584(%rbp), %rax
	movl	40(%rax), %ecx
	movq	-584(%rbp), %rax
	movl	36(%rax), %edx
	movq	-584(%rbp), %rax
	leaq	yy_1_Op(%rip), %rsi
	movq	%rax, %rdi
	call	yyDo
	.loc 1 116 55
	jmp	.L353
.L863:
.LBB16:
	.loc 1 114 97
	nop
.L352:
	endbr64
.LBE16:
	.loc 1 117 20
	movq	-584(%rbp), %rax
	movl	-560(%rbp), %edx
	movl	%edx, 12(%rax)
	.loc 1 117 45
	movq	-584(%rbp), %rax
	movl	-556(%rbp), %edx
	movl	%edx, 60(%rax)
.LBB17:
	.loc 1 118 10
	movq	-584(%rbp), %rax
	movl	12(%rax), %eax
	movl	%eax, -544(%rbp)
	.loc 1 118 30
	movq	-584(%rbp), %rax
	movl	60(%rax), %eax
	movl	%eax, -540(%rbp)
	.loc 1 118 66
	movq	-584(%rbp), %rax
	leaq	.LC169(%rip), %rsi
	movq	%rax, %rdi
	call	yymatchString
	.loc 1 118 64
	testl	%eax, %eax
	jne	.L864
	.loc 1 118 93 discriminator 1
	nop
.L355:
	endbr64
	.loc 1 119 20 discriminator 1
	movq	-584(%rbp), %rax
	movl	-544(%rbp), %edx
	movl	%edx, 12(%rax)
	.loc 1 119 45 discriminator 1
	movq	-584(%rbp), %rax
	movl	-540(%rbp), %edx
	movl	%edx, 60(%rax)
	.loc 1 119 67 discriminator 1
	movq	-584(%rbp), %rax
	leaq	.LC170(%rip), %rsi
	movq	%rax, %rdi
	call	yymatchString
	.loc 1 119 65 discriminator 1
	testl	%eax, %eax
	je	.L865
.LBE17:
	.loc 1 121 3
	jmp	.L356
.L864:
.LBB18:
	.loc 1 118 104
	nop
.L356:
.LBE18:
	.loc 1 121 11
	movq	-584(%rbp), %rax
	movl	40(%rax), %ecx
	movq	-584(%rbp), %rax
	movl	36(%rax), %edx
	movq	-584(%rbp), %rax
	leaq	yy_2_Op(%rip), %rsi
	movq	%rax, %rdi
	call	yyDo
	.loc 1 121 55
	jmp	.L353
.L865:
.LBB19:
	.loc 1 119 99
	nop
.L357:
	endbr64
.LBE19:
	.loc 1 122 20
	movq	-584(%rbp), %rax
	movl	-560(%rbp), %edx
	movl	%edx, 12(%rax)
	.loc 1 122 45
	movq	-584(%rbp), %rax
	movl	-556(%rbp), %edx
	movl	%edx, 60(%rax)
.LBB20:
	.loc 1 123 10
	movq	-584(%rbp), %rax
	movl	12(%rax), %eax
	movl	%eax, -536(%rbp)
	.loc 1 123 30
	movq	-584(%rbp), %rax
	movl	60(%rax), %eax
	movl	%eax, -532(%rbp)
	.loc 1 123 66
	movq	-584(%rbp), %rax
	leaq	.LC171(%rip), %rsi
	movq	%rax, %rdi
	call	yymatchString
	.loc 1 123 64
	testl	%eax, %eax
	jne	.L866
	.loc 1 123 93 discriminator 1
	nop
.L359:
	endbr64
	.loc 1 124 20 discriminator 1
	movq	-584(%rbp), %rax
	movl	-536(%rbp), %edx
	movl	%edx, 12(%rax)
	.loc 1 124 45 discriminator 1
	movq	-584(%rbp), %rax
	movl	-532(%rbp), %edx
	movl	%edx, 60(%rax)
	.loc 1 124 67 discriminator 1
	movq	-584(%rbp), %rax
	leaq	.LC172(%rip), %rsi
	movq	%rax, %rdi
	call	yymatchString
	.loc 1 124 65 discriminator 1
	testl	%eax, %eax
	je	.L867
.LBE20:
	.loc 1 126 3
	jmp	.L360
.L866:
.LBB21:
	.loc 1 123 104
	nop
.L360:
.LBE21:
	.loc 1 126 11
	movq	-584(%rbp), %rax
	movl	40(%rax), %ecx
	movq	-584(%rbp), %rax
	movl	36(%rax), %edx
	movq	-584(%rbp), %rax
	leaq	yy_3_Op(%rip), %rsi
	movq	%rax, %rdi
	call	yyDo
	.loc 1 126 55
	jmp	.L353
.L867:
.LBB22:
	.loc 1 124 99
	nop
.L361:
	endbr64
.LBE22:
	.loc 1 127 20
	movq	-584(%rbp), %rax
	movl	-560(%rbp), %edx
	movl	%edx, 12(%rax)
	.loc 1 127 45
	movq	-584(%rbp), %rax
	movl	-556(%rbp), %edx
	movl	%edx, 60(%rax)
.LBB23:
	.loc 1 128 10
	movq	-584(%rbp), %rax
	movl	12(%rax), %eax
	movl	%eax, -528(%rbp)
	.loc 1 128 30
	movq	-584(%rbp), %rax
	movl	60(%rax), %eax
	movl	%eax, -524(%rbp)
	.loc 1 128 66
	movq	-584(%rbp), %rax
	leaq	.LC173(%rip), %rsi
	movq	%rax, %rdi
	call	yymatchString
	.loc 1 128 64
	testl	%eax, %eax
	jne	.L868
	.loc 1 128 93 discriminator 1
	nop
.L363:
	endbr64
	.loc 1 129 20 discriminator 1
	movq	-584(%rbp), %rax
	movl	-528(%rbp), %edx
	movl	%edx, 12(%rax)
	.loc 1 129 45 discriminator 1
	movq	-584(%rbp), %rax
	movl	-524(%rbp), %edx
	movl	%edx, 60(%rax)
	.loc 1 129 67 discriminator 1
	movq	-584(%rbp), %rax
	leaq	.LC174(%rip), %rsi
	movq	%rax, %rdi
	call	yymatchString
	.loc 1 129 65 discriminator 1
	testl	%eax, %eax
	je	.L869
.LBE23:
	.loc 1 131 3
	jmp	.L364
.L868:
.LBB24:
	.loc 1 128 104
	nop
.L364:
.LBE24:
	.loc 1 131 11
	movq	-584(%rbp), %rax
	movl	40(%rax), %ecx
	movq	-584(%rbp), %rax
	movl	36(%rax), %edx
	movq	-584(%rbp), %rax
	leaq	yy_4_Op(%rip), %rsi
	movq	%rax, %rdi
	call	yyDo
	.loc 1 131 55
	jmp	.L353
.L869:
.LBB25:
	.loc 1 129 100
	nop
.L365:
	endbr64
.LBE25:
	.loc 1 132 20
	movq	-584(%rbp), %rax
	movl	-560(%rbp), %edx
	movl	%edx, 12(%rax)
	.loc 1 132 45
	movq	-584(%rbp), %rax
	movl	-556(%rbp), %edx
	movl	%edx, 60(%rax)
	.loc 1 132 67
	movq	-584(%rbp), %rax
	leaq	.LC175(%rip), %rsi
	movq	%rax, %rdi
	call	yymatchString
	.loc 1 132 65
	testl	%eax, %eax
	je	.L870
	.loc 1 132 105 discriminator 2
	movq	-584(%rbp), %rax
	movl	40(%rax), %ecx
	movq	-584(%rbp), %rax
	movl	36(%rax), %edx
	movq	-584(%rbp), %rax
	leaq	yy_5_Op(%rip), %rsi
	movq	%rax, %rdi
	call	yyDo
	.loc 1 132 149 discriminator 2
	jmp	.L353
.L870:
	.loc 1 132 94
	nop
.L367:
	endbr64
	.loc 1 133 20
	movq	-584(%rbp), %rax
	movl	-560(%rbp), %edx
	movl	%edx, 12(%rax)
	.loc 1 133 45
	movq	-584(%rbp), %rax
	movl	-556(%rbp), %edx
	movl	%edx, 60(%rax)
.LBB26:
	.loc 1 134 10
	movq	-584(%rbp), %rax
	movl	12(%rax), %eax
	movl	%eax, -520(%rbp)
	.loc 1 134 30
	movq	-584(%rbp), %rax
	movl	60(%rax), %eax
	movl	%eax, -516(%rbp)
	.loc 1 134 66
	movq	-584(%rbp), %rax
	leaq	.LC176(%rip), %rsi
	movq	%rax, %rdi
	call	yymatchString
	.loc 1 134 64
	testl	%eax, %eax
	jne	.L871
	.loc 1 134 93 discriminator 1
	nop
.L369:
	endbr64
	.loc 1 135 20 discriminator 1
	movq	-584(%rbp), %rax
	movl	-520(%rbp), %edx
	movl	%edx, 12(%rax)
	.loc 1 135 45 discriminator 1
	movq	-584(%rbp), %rax
	movl	-516(%rbp), %edx
	movl	%edx, 60(%rax)
	.loc 1 135 67 discriminator 1
	movq	-584(%rbp), %rax
	leaq	.LC177(%rip), %rsi
	movq	%rax, %rdi
	call	yymatchString
	.loc 1 135 65 discriminator 1
	testl	%eax, %eax
	je	.L872
.LBE26:
	.loc 1 137 3
	jmp	.L370
.L871:
.LBB27:
	.loc 1 134 104
	nop
.L370:
.LBE27:
	.loc 1 137 11
	movq	-584(%rbp), %rax
	movl	40(%rax), %ecx
	movq	-584(%rbp), %rax
	movl	36(%rax), %edx
	movq	-584(%rbp), %rax
	leaq	yy_6_Op(%rip), %rsi
	movq	%rax, %rdi
	call	yyDo
	.loc 1 137 55
	jmp	.L353
.L872:
.LBB28:
	.loc 1 135 100
	nop
.L371:
	endbr64
.LBE28:
	.loc 1 138 20
	movq	-584(%rbp), %rax
	movl	-560(%rbp), %edx
	movl	%edx, 12(%rax)
	.loc 1 138 45
	movq	-584(%rbp), %rax
	movl	-556(%rbp), %edx
	movl	%edx, 60(%rax)
.LBB29:
	.loc 1 139 10
	movq	-584(%rbp), %rax
	movl	12(%rax), %eax
	movl	%eax, -512(%rbp)
	.loc 1 139 30
	movq	-584(%rbp), %rax
	movl	60(%rax), %eax
	movl	%eax, -508(%rbp)
	.loc 1 139 66
	movq	-584(%rbp), %rax
	leaq	.LC178(%rip), %rsi
	movq	%rax, %rdi
	call	yymatchString
	.loc 1 139 64
	testl	%eax, %eax
	jne	.L873
	.loc 1 139 93 discriminator 1
	nop
.L373:
	endbr64
	.loc 1 140 20 discriminator 1
	movq	-584(%rbp), %rax
	movl	-512(%rbp), %edx
	movl	%edx, 12(%rax)
	.loc 1 140 45 discriminator 1
	movq	-584(%rbp), %rax
	movl	-508(%rbp), %edx
	movl	%edx, 60(%rax)
	.loc 1 140 67 discriminator 1
	movq	-584(%rbp), %rax
	leaq	.LC179(%rip), %rsi
	movq	%rax, %rdi
	call	yymatchString
	.loc 1 140 65 discriminator 1
	testl	%eax, %eax
	je	.L874
.LBE29:
	.loc 1 142 3
	jmp	.L374
.L873:
.LBB30:
	.loc 1 139 104
	nop
.L374:
.LBE30:
	.loc 1 142 11
	movq	-584(%rbp), %rax
	movl	40(%rax), %ecx
	movq	-584(%rbp), %rax
	movl	36(%rax), %edx
	movq	-584(%rbp), %rax
	leaq	yy_7_Op(%rip), %rsi
	movq	%rax, %rdi
	call	yyDo
	.loc 1 142 55
	jmp	.L353
.L874:
.LBB31:
	.loc 1 140 99
	nop
.L375:
	endbr64
.LBE31:
	.loc 1 143 20
	movq	-584(%rbp), %rax
	movl	-560(%rbp), %edx
	movl	%edx, 12(%rax)
	.loc 1 143 45
	movq	-584(%rbp), %rax
	movl	-556(%rbp), %edx
	movl	%edx, 60(%rax)
	.loc 1 143 67
	movq	-584(%rbp), %rax
	leaq	.LC180(%rip), %rsi
	movq	%rax, %rdi
	call	yymatchString
	.loc 1 143 65
	testl	%eax, %eax
	je	.L875
	.loc 1 143 105 discriminator 2
	movq	-584(%rbp), %rax
	movl	40(%rax), %ecx
	movq	-584(%rbp), %rax
	movl	36(%rax), %edx
	movq	-584(%rbp), %rax
	leaq	yy_8_Op(%rip), %rsi
	movq	%rax, %rdi
	call	yyDo
	.loc 1 143 149 discriminator 2
	jmp	.L353
.L875:
	.loc 1 143 94
	nop
.L377:
	endbr64
	.loc 1 144 20
	movq	-584(%rbp), %rax
	movl	-560(%rbp), %edx
	movl	%edx, 12(%rax)
	.loc 1 144 45
	movq	-584(%rbp), %rax
	movl	-556(%rbp), %edx
	movl	%edx, 60(%rax)
.LBB32:
	.loc 1 145 10
	movq	-584(%rbp), %rax
	movl	12(%rax), %eax
	movl	%eax, -504(%rbp)
	.loc 1 145 30
	movq	-584(%rbp), %rax
	movl	60(%rax), %eax
	movl	%eax, -500(%rbp)
	.loc 1 145 66
	movq	-584(%rbp), %rax
	leaq	.LC181(%rip), %rsi
	movq	%rax, %rdi
	call	yymatchString
	.loc 1 145 64
	testl	%eax, %eax
	jne	.L876
	.loc 1 145 92 discriminator 1
	nop
.L379:
	endbr64
	.loc 1 146 20 discriminator 1
	movq	-584(%rbp), %rax
	movl	-504(%rbp), %edx
	movl	%edx, 12(%rax)
	.loc 1 146 45 discriminator 1
	movq	-584(%rbp), %rax
	movl	-500(%rbp), %edx
	movl	%edx, 60(%rax)
	.loc 1 146 67 discriminator 1
	movq	-584(%rbp), %rax
	leaq	.LC182(%rip), %rsi
	movq	%rax, %rdi
	call	yymatchString
	.loc 1 146 65 discriminator 1
	testl	%eax, %eax
	je	.L877
.LBE32:
	.loc 1 148 3
	jmp	.L380
.L876:
.LBB33:
	.loc 1 145 103
	nop
.L380:
.LBE33:
	.loc 1 148 11
	movq	-584(%rbp), %rax
	movl	40(%rax), %ecx
	movq	-584(%rbp), %rax
	movl	36(%rax), %edx
	movq	-584(%rbp), %rax
	leaq	yy_9_Op(%rip), %rsi
	movq	%rax, %rdi
	call	yyDo
	.loc 1 148 55
	jmp	.L353
.L877:
.LBB34:
	.loc 1 146 96
	nop
.L381:
	endbr64
.LBE34:
	.loc 1 149 20
	movq	-584(%rbp), %rax
	movl	-560(%rbp), %edx
	movl	%edx, 12(%rax)
	.loc 1 149 45
	movq	-584(%rbp), %rax
	movl	-556(%rbp), %edx
	movl	%edx, 60(%rax)
	.loc 1 149 67
	movq	-584(%rbp), %rax
	leaq	.LC183(%rip), %rsi
	movq	%rax, %rdi
	call	yymatchString
	.loc 1 149 65
	testl	%eax, %eax
	je	.L878
	.loc 1 149 105 discriminator 2
	movq	-584(%rbp), %rax
	movl	40(%rax), %ecx
	movq	-584(%rbp), %rax
	movl	36(%rax), %edx
	movq	-584(%rbp), %rax
	leaq	yy_10_Op(%rip), %rsi
	movq	%rax, %rdi
	call	yyDo
	.loc 1 149 150 discriminator 2
	jmp	.L353
.L878:
	.loc 1 149 94
	nop
.L383:
	endbr64
	.loc 1 150 20
	movq	-584(%rbp), %rax
	movl	-560(%rbp), %edx
	movl	%edx, 12(%rax)
	.loc 1 150 45
	movq	-584(%rbp), %rax
	movl	-556(%rbp), %edx
	movl	%edx, 60(%rax)
	.loc 1 150 67
	movq	-584(%rbp), %rax
	leaq	.LC184(%rip), %rsi
	movq	%rax, %rdi
	call	yymatchString
	.loc 1 150 65
	testl	%eax, %eax
	je	.L879
	.loc 1 150 104 discriminator 2
	movq	-584(%rbp), %rax
	movl	40(%rax), %ecx
	movq	-584(%rbp), %rax
	movl	36(%rax), %edx
	movq	-584(%rbp), %rax
	leaq	yy_11_Op(%rip), %rsi
	movq	%rax, %rdi
	call	yyDo
	.loc 1 150 149 discriminator 2
	jmp	.L353
.L879:
	.loc 1 150 93
	nop
.L385:
	endbr64
	.loc 1 151 20
	movq	-584(%rbp), %rax
	movl	-560(%rbp), %edx
	movl	%edx, 12(%rax)
	.loc 1 151 45
	movq	-584(%rbp), %rax
	movl	-556(%rbp), %edx
	movl	%edx, 60(%rax)
	.loc 1 151 67
	movq	-584(%rbp), %rax
	leaq	.LC185(%rip), %rsi
	movq	%rax, %rdi
	call	yymatchString
	.loc 1 151 65
	testl	%eax, %eax
	je	.L880
	.loc 1 151 104 discriminator 2
	movq	-584(%rbp), %rax
	movl	40(%rax), %ecx
	movq	-584(%rbp), %rax
	movl	36(%rax), %edx
	movq	-584(%rbp), %rax
	leaq	yy_12_Op(%rip), %rsi
	movq	%rax, %rdi
	call	yyDo
	.loc 1 151 149 discriminator 2
	jmp	.L353
.L880:
	.loc 1 151 93
	nop
.L387:
	endbr64
	.loc 1 152 20
	movq	-584(%rbp), %rax
	movl	-560(%rbp), %edx
	movl	%edx, 12(%rax)
	.loc 1 152 45
	movq	-584(%rbp), %rax
	movl	-556(%rbp), %edx
	movl	%edx, 60(%rax)
.LBB35:
	.loc 1 153 10
	movq	-584(%rbp), %rax
	movl	12(%rax), %eax
	movl	%eax, -496(%rbp)
	.loc 1 153 30
	movq	-584(%rbp), %rax
	movl	60(%rax), %eax
	movl	%eax, -492(%rbp)
	.loc 1 153 66
	movq	-584(%rbp), %rax
	leaq	.LC186(%rip), %rsi
	movq	%rax, %rdi
	call	yymatchString
	.loc 1 153 64
	testl	%eax, %eax
	jne	.L881
	.loc 1 153 91 discriminator 1
	nop
.L389:
	endbr64
	.loc 1 154 20 discriminator 1
	movq	-584(%rbp), %rax
	movl	-496(%rbp), %edx
	movl	%edx, 12(%rax)
	.loc 1 154 45 discriminator 1
	movq	-584(%rbp), %rax
	movl	-492(%rbp), %edx
	movl	%edx, 60(%rax)
	.loc 1 154 67 discriminator 1
	movq	-584(%rbp), %rax
	leaq	.LC187(%rip), %rsi
	movq	%rax, %rdi
	call	yymatchString
	.loc 1 154 65 discriminator 1
	testl	%eax, %eax
	je	.L882
.LBE35:
	.loc 1 156 3
	jmp	.L390
.L881:
.LBB36:
	.loc 1 153 102
	nop
.L390:
.LBE36:
	.loc 1 156 11
	movq	-584(%rbp), %rax
	movl	40(%rax), %ecx
	movq	-584(%rbp), %rax
	movl	36(%rax), %edx
	movq	-584(%rbp), %rax
	leaq	yy_13_Op(%rip), %rsi
	movq	%rax, %rdi
	call	yyDo
	.loc 1 156 56
	jmp	.L353
.L882:
.LBB37:
	.loc 1 154 92
	nop
.L391:
	endbr64
.LBE37:
	.loc 1 157 20
	movq	-584(%rbp), %rax
	movl	-560(%rbp), %edx
	movl	%edx, 12(%rax)
	.loc 1 157 45
	movq	-584(%rbp), %rax
	movl	-556(%rbp), %edx
	movl	%edx, 60(%rax)
	.loc 1 157 67
	movq	-584(%rbp), %rax
	leaq	.LC188(%rip), %rsi
	movq	%rax, %rdi
	call	yymatchString
	.loc 1 157 65
	testl	%eax, %eax
	je	.L883
	.loc 1 157 122 discriminator 2
	movq	-584(%rbp), %rax
	movl	40(%rax), %ecx
	movq	-584(%rbp), %rax
	movl	36(%rax), %edx
	movq	-584(%rbp), %rax
	leaq	yy_14_Op(%rip), %rsi
	movq	%rax, %rdi
	call	yyDo
	.loc 1 157 167 discriminator 2
	jmp	.L353
.L883:
	.loc 1 157 111
	nop
.L393:
	endbr64
	.loc 1 158 20
	movq	-584(%rbp), %rax
	movl	-560(%rbp), %edx
	movl	%edx, 12(%rax)
	.loc 1 158 45
	movq	-584(%rbp), %rax
	movl	-556(%rbp), %edx
	movl	%edx, 60(%rax)
	.loc 1 158 67
	movq	-584(%rbp), %rax
	leaq	.LC189(%rip), %rsi
	movq	%rax, %rdi
	call	yymatchString
	.loc 1 158 65
	testl	%eax, %eax
	je	.L884
	.loc 1 158 115 discriminator 2
	movq	-584(%rbp), %rax
	movl	40(%rax), %ecx
	movq	-584(%rbp), %rax
	movl	36(%rax), %edx
	movq	-584(%rbp), %rax
	leaq	yy_15_Op(%rip), %rsi
	movq	%rax, %rdi
	call	yyDo
	.loc 1 158 160 discriminator 2
	jmp	.L353
.L884:
	.loc 1 158 104
	nop
.L395:
	endbr64
	.loc 1 159 20
	movq	-584(%rbp), %rax
	movl	-560(%rbp), %edx
	movl	%edx, 12(%rax)
	.loc 1 159 45
	movq	-584(%rbp), %rax
	movl	-556(%rbp), %edx
	movl	%edx, 60(%rax)
	.loc 1 159 67
	movq	-584(%rbp), %rax
	leaq	.LC190(%rip), %rsi
	movq	%rax, %rdi
	call	yymatchString
	.loc 1 159 65
	testl	%eax, %eax
	je	.L885
	.loc 1 159 118 discriminator 2
	movq	-584(%rbp), %rax
	movl	40(%rax), %ecx
	movq	-584(%rbp), %rax
	movl	36(%rax), %edx
	movq	-584(%rbp), %rax
	leaq	yy_16_Op(%rip), %rsi
	movq	%rax, %rdi
	call	yyDo
	.loc 1 159 163 discriminator 2
	jmp	.L353
.L885:
	.loc 1 159 107
	nop
.L397:
	endbr64
	.loc 1 160 20
	movq	-584(%rbp), %rax
	movl	-560(%rbp), %edx
	movl	%edx, 12(%rax)
	.loc 1 160 45
	movq	-584(%rbp), %rax
	movl	-556(%rbp), %edx
	movl	%edx, 60(%rax)
	.loc 1 160 67
	movq	-584(%rbp), %rax
	leaq	.LC191(%rip), %rsi
	movq	%rax, %rdi
	call	yymatchString
	.loc 1 160 65
	testl	%eax, %eax
	je	.L886
	.loc 1 160 115 discriminator 2
	movq	-584(%rbp), %rax
	movl	40(%rax), %ecx
	movq	-584(%rbp), %rax
	movl	36(%rax), %edx
	movq	-584(%rbp), %rax
	leaq	yy_17_Op(%rip), %rsi
	movq	%rax, %rdi
	call	yyDo
	.loc 1 160 160 discriminator 2
	jmp	.L353
.L886:
	.loc 1 160 104
	nop
.L399:
	endbr64
	.loc 1 161 20
	movq	-584(%rbp), %rax
	movl	-560(%rbp), %edx
	movl	%edx, 12(%rax)
	.loc 1 161 45
	movq	-584(%rbp), %rax
	movl	-556(%rbp), %edx
	movl	%edx, 60(%rax)
	.loc 1 161 67
	movq	-584(%rbp), %rax
	leaq	.LC192(%rip), %rsi
	movq	%rax, %rdi
	call	yymatchString
	.loc 1 161 65
	testl	%eax, %eax
	je	.L887
	.loc 1 161 115 discriminator 2
	movq	-584(%rbp), %rax
	movl	40(%rax), %ecx
	movq	-584(%rbp), %rax
	movl	36(%rax), %edx
	movq	-584(%rbp), %rax
	leaq	yy_18_Op(%rip), %rsi
	movq	%rax, %rdi
	call	yyDo
	.loc 1 161 160 discriminator 2
	jmp	.L353
.L887:
	.loc 1 161 104
	nop
.L401:
	endbr64
	.loc 1 162 20
	movq	-584(%rbp), %rax
	movl	-560(%rbp), %edx
	movl	%edx, 12(%rax)
	.loc 1 162 45
	movq	-584(%rbp), %rax
	movl	-556(%rbp), %edx
	movl	%edx, 60(%rax)
	.loc 1 162 67
	movq	-584(%rbp), %rax
	leaq	.LC104(%rip), %rsi
	movq	%rax, %rdi
	call	yymatchString
	.loc 1 162 65
	testl	%eax, %eax
	je	.L888
	.loc 1 162 104 discriminator 2
	movq	-584(%rbp), %rax
	movl	40(%rax), %ecx
	movq	-584(%rbp), %rax
	movl	36(%rax), %edx
	movq	-584(%rbp), %rax
	leaq	yy_19_Op(%rip), %rsi
	movq	%rax, %rdi
	call	yyDo
	.loc 1 162 149 discriminator 2
	jmp	.L353
.L888:
	.loc 1 162 93
	nop
.L403:
	endbr64
	.loc 1 163 20
	movq	-584(%rbp), %rax
	movl	-560(%rbp), %edx
	movl	%edx, 12(%rax)
	.loc 1 163 45
	movq	-584(%rbp), %rax
	movl	-556(%rbp), %edx
	movl	%edx, 60(%rax)
	.loc 1 163 67
	movq	-584(%rbp), %rax
	leaq	.LC103(%rip), %rsi
	movq	%rax, %rdi
	call	yymatchString
	.loc 1 163 65
	testl	%eax, %eax
	je	.L889
	.loc 1 163 103 discriminator 2
	movq	-584(%rbp), %rax
	movl	40(%rax), %ecx
	movq	-584(%rbp), %rax
	movl	36(%rax), %edx
	movq	-584(%rbp), %rax
	leaq	yy_20_Op(%rip), %rsi
	movq	%rax, %rdi
	call	yyDo
	.loc 1 163 148 discriminator 2
	jmp	.L353
.L889:
	.loc 1 163 92
	nop
.L405:
	endbr64
	.loc 1 164 20
	movq	-584(%rbp), %rax
	movl	-560(%rbp), %edx
	movl	%edx, 12(%rax)
	.loc 1 164 45
	movq	-584(%rbp), %rax
	movl	-556(%rbp), %edx
	movl	%edx, 60(%rax)
.LBB38:
	.loc 1 165 10
	movq	-584(%rbp), %rax
	movl	12(%rax), %eax
	movl	%eax, -488(%rbp)
	.loc 1 165 30
	movq	-584(%rbp), %rax
	movl	60(%rax), %eax
	movl	%eax, -484(%rbp)
	.loc 1 165 66
	movq	-584(%rbp), %rax
	leaq	.LC193(%rip), %rsi
	movq	%rax, %rdi
	call	yymatchString
	.loc 1 165 64
	testl	%eax, %eax
	jne	.L890
	.loc 1 165 92 discriminator 1
	nop
.L407:
	endbr64
	.loc 1 166 20 discriminator 1
	movq	-584(%rbp), %rax
	movl	-488(%rbp), %edx
	movl	%edx, 12(%rax)
	.loc 1 166 45 discriminator 1
	movq	-584(%rbp), %rax
	movl	-484(%rbp), %edx
	movl	%edx, 60(%rax)
	.loc 1 166 67 discriminator 1
	movq	-584(%rbp), %rax
	leaq	.LC194(%rip), %rsi
	movq	%rax, %rdi
	call	yymatchString
	.loc 1 166 65 discriminator 1
	testl	%eax, %eax
	je	.L891
.LBE38:
	.loc 1 168 3
	jmp	.L408
.L890:
.LBB39:
	.loc 1 165 103
	nop
.L408:
.LBE39:
	.loc 1 168 11
	movq	-584(%rbp), %rax
	movl	40(%rax), %ecx
	movq	-584(%rbp), %rax
	movl	36(%rax), %edx
	movq	-584(%rbp), %rax
	leaq	yy_21_Op(%rip), %rsi
	movq	%rax, %rdi
	call	yyDo
	.loc 1 168 56
	jmp	.L353
.L891:
.LBB40:
	.loc 1 166 93
	nop
.L409:
	endbr64
.LBE40:
	.loc 1 169 20
	movq	-584(%rbp), %rax
	movl	-560(%rbp), %edx
	movl	%edx, 12(%rax)
	.loc 1 169 45
	movq	-584(%rbp), %rax
	movl	-556(%rbp), %edx
	movl	%edx, 60(%rax)
.LBB41:
	.loc 1 170 10
	movq	-584(%rbp), %rax
	movl	12(%rax), %eax
	movl	%eax, -480(%rbp)
	.loc 1 170 30
	movq	-584(%rbp), %rax
	movl	60(%rax), %eax
	movl	%eax, -476(%rbp)
	.loc 1 170 66
	movq	-584(%rbp), %rax
	leaq	.LC195(%rip), %rsi
	movq	%rax, %rdi
	call	yymatchString
	.loc 1 170 64
	testl	%eax, %eax
	jne	.L892
	.loc 1 170 91 discriminator 1
	nop
.L411:
	endbr64
	.loc 1 171 20 discriminator 1
	movq	-584(%rbp), %rax
	movl	-480(%rbp), %edx
	movl	%edx, 12(%rax)
	.loc 1 171 45 discriminator 1
	movq	-584(%rbp), %rax
	movl	-476(%rbp), %edx
	movl	%edx, 60(%rax)
	.loc 1 171 67 discriminator 1
	movq	-584(%rbp), %rax
	leaq	.LC196(%rip), %rsi
	movq	%rax, %rdi
	call	yymatchString
	.loc 1 171 65 discriminator 1
	testl	%eax, %eax
	je	.L893
.LBE41:
	.loc 1 173 3
	jmp	.L412
.L892:
.LBB42:
	.loc 1 170 102
	nop
.L412:
.LBE42:
	.loc 1 173 11
	movq	-584(%rbp), %rax
	movl	40(%rax), %ecx
	movq	-584(%rbp), %rax
	movl	36(%rax), %edx
	movq	-584(%rbp), %rax
	leaq	yy_22_Op(%rip), %rsi
	movq	%rax, %rdi
	call	yyDo
	.loc 1 173 56
	jmp	.L353
.L893:
.LBB43:
	.loc 1 171 97
	nop
.L413:
	endbr64
.LBE43:
	.loc 1 174 20
	movq	-584(%rbp), %rax
	movl	-560(%rbp), %edx
	movl	%edx, 12(%rax)
	.loc 1 174 45
	movq	-584(%rbp), %rax
	movl	-556(%rbp), %edx
	movl	%edx, 60(%rax)
	.loc 1 174 67
	movq	-584(%rbp), %rax
	leaq	.LC100(%rip), %rsi
	movq	%rax, %rdi
	call	yymatchString
	.loc 1 174 65
	testl	%eax, %eax
	je	.L894
	.loc 1 174 103 discriminator 2
	movq	-584(%rbp), %rax
	movl	40(%rax), %ecx
	movq	-584(%rbp), %rax
	movl	36(%rax), %edx
	movq	-584(%rbp), %rax
	leaq	yy_23_Op(%rip), %rsi
	movq	%rax, %rdi
	call	yyDo
	.loc 1 174 148 discriminator 2
	jmp	.L353
.L894:
	.loc 1 174 92
	nop
.L415:
	endbr64
	.loc 1 175 20
	movq	-584(%rbp), %rax
	movl	-560(%rbp), %edx
	movl	%edx, 12(%rax)
	.loc 1 175 45
	movq	-584(%rbp), %rax
	movl	-556(%rbp), %edx
	movl	%edx, 60(%rax)
.LBB44:
	.loc 1 176 10
	movq	-584(%rbp), %rax
	movl	12(%rax), %eax
	movl	%eax, -472(%rbp)
	.loc 1 176 30
	movq	-584(%rbp), %rax
	movl	60(%rax), %eax
	movl	%eax, -468(%rbp)
	.loc 1 176 66
	movq	-584(%rbp), %rax
	leaq	.LC197(%rip), %rsi
	movq	%rax, %rdi
	call	yymatchString
	.loc 1 176 64
	testl	%eax, %eax
	jne	.L895
	.loc 1 176 92 discriminator 1
	nop
.L417:
	endbr64
	.loc 1 177 20 discriminator 1
	movq	-584(%rbp), %rax
	movl	-472(%rbp), %edx
	movl	%edx, 12(%rax)
	.loc 1 177 45 discriminator 1
	movq	-584(%rbp), %rax
	movl	-468(%rbp), %edx
	movl	%edx, 60(%rax)
	.loc 1 177 67 discriminator 1
	movq	-584(%rbp), %rax
	leaq	.LC198(%rip), %rsi
	movq	%rax, %rdi
	call	yymatchString
	.loc 1 177 65 discriminator 1
	testl	%eax, %eax
	je	.L896
.LBE44:
	.loc 1 179 3
	jmp	.L418
.L895:
.LBB45:
	.loc 1 176 103
	nop
.L418:
.LBE45:
	.loc 1 179 11
	movq	-584(%rbp), %rax
	movl	40(%rax), %ecx
	movq	-584(%rbp), %rax
	movl	36(%rax), %edx
	movq	-584(%rbp), %rax
	leaq	yy_24_Op(%rip), %rsi
	movq	%rax, %rdi
	call	yyDo
	.loc 1 179 56
	jmp	.L353
.L896:
.LBB46:
	.loc 1 177 93
	nop
.L419:
	endbr64
.LBE46:
	.loc 1 180 20
	movq	-584(%rbp), %rax
	movl	-560(%rbp), %edx
	movl	%edx, 12(%rax)
	.loc 1 180 45
	movq	-584(%rbp), %rax
	movl	-556(%rbp), %edx
	movl	%edx, 60(%rax)
.LBB47:
	.loc 1 181 10
	movq	-584(%rbp), %rax
	movl	12(%rax), %eax
	movl	%eax, -464(%rbp)
	.loc 1 181 30
	movq	-584(%rbp), %rax
	movl	60(%rax), %eax
	movl	%eax, -460(%rbp)
	.loc 1 181 66
	movq	-584(%rbp), %rax
	leaq	.LC199(%rip), %rsi
	movq	%rax, %rdi
	call	yymatchString
	.loc 1 181 64
	testl	%eax, %eax
	jne	.L897
	.loc 1 181 91 discriminator 1
	nop
.L421:
	endbr64
	.loc 1 182 20 discriminator 1
	movq	-584(%rbp), %rax
	movl	-464(%rbp), %edx
	movl	%edx, 12(%rax)
	.loc 1 182 45 discriminator 1
	movq	-584(%rbp), %rax
	movl	-460(%rbp), %edx
	movl	%edx, 60(%rax)
	.loc 1 182 67 discriminator 1
	movq	-584(%rbp), %rax
	leaq	.LC200(%rip), %rsi
	movq	%rax, %rdi
	call	yymatchString
	.loc 1 182 65 discriminator 1
	testl	%eax, %eax
	je	.L898
.LBE47:
	.loc 1 184 3
	jmp	.L422
.L897:
.LBB48:
	.loc 1 181 102
	nop
.L422:
.LBE48:
	.loc 1 184 11
	movq	-584(%rbp), %rax
	movl	40(%rax), %ecx
	movq	-584(%rbp), %rax
	movl	36(%rax), %edx
	movq	-584(%rbp), %rax
	leaq	yy_25_Op(%rip), %rsi
	movq	%rax, %rdi
	call	yyDo
	.loc 1 184 56
	jmp	.L353
.L898:
.LBB49:
	.loc 1 182 96
	nop
.L423:
	endbr64
.LBE49:
	.loc 1 185 20
	movq	-584(%rbp), %rax
	movl	-560(%rbp), %edx
	movl	%edx, 12(%rax)
	.loc 1 185 45
	movq	-584(%rbp), %rax
	movl	-556(%rbp), %edx
	movl	%edx, 60(%rax)
.LBB50:
	.loc 1 186 10
	movq	-584(%rbp), %rax
	movl	12(%rax), %eax
	movl	%eax, -456(%rbp)
	.loc 1 186 30
	movq	-584(%rbp), %rax
	movl	60(%rax), %eax
	movl	%eax, -452(%rbp)
	.loc 1 186 66
	movq	-584(%rbp), %rax
	leaq	.LC201(%rip), %rsi
	movq	%rax, %rdi
	call	yymatchString
	.loc 1 186 64
	testl	%eax, %eax
	jne	.L899
	.loc 1 186 91 discriminator 1
	nop
.L425:
	endbr64
	.loc 1 187 20 discriminator 1
	movq	-584(%rbp), %rax
	movl	-456(%rbp), %edx
	movl	%edx, 12(%rax)
	.loc 1 187 45 discriminator 1
	movq	-584(%rbp), %rax
	movl	-452(%rbp), %edx
	movl	%edx, 60(%rax)
	.loc 1 187 67 discriminator 1
	movq	-584(%rbp), %rax
	leaq	.LC202(%rip), %rsi
	movq	%rax, %rdi
	call	yymatchString
	.loc 1 187 65 discriminator 1
	testl	%eax, %eax
	je	.L900
.LBE50:
	.loc 1 189 3
	jmp	.L426
.L899:
.LBB51:
	.loc 1 186 102
	nop
.L426:
.LBE51:
	.loc 1 189 11
	movq	-584(%rbp), %rax
	movl	40(%rax), %ecx
	movq	-584(%rbp), %rax
	movl	36(%rax), %edx
	movq	-584(%rbp), %rax
	leaq	yy_26_Op(%rip), %rsi
	movq	%rax, %rdi
	call	yyDo
	.loc 1 189 56
	jmp	.L353
.L900:
.LBB52:
	.loc 1 187 96
	nop
.L427:
	endbr64
.LBE52:
	.loc 1 190 20
	movq	-584(%rbp), %rax
	movl	-560(%rbp), %edx
	movl	%edx, 12(%rax)
	.loc 1 190 45
	movq	-584(%rbp), %rax
	movl	-556(%rbp), %edx
	movl	%edx, 60(%rax)
.LBB53:
	.loc 1 191 10
	movq	-584(%rbp), %rax
	movl	12(%rax), %eax
	movl	%eax, -448(%rbp)
	.loc 1 191 30
	movq	-584(%rbp), %rax
	movl	60(%rax), %eax
	movl	%eax, -444(%rbp)
	.loc 1 191 66
	movq	-584(%rbp), %rax
	leaq	.LC203(%rip), %rsi
	movq	%rax, %rdi
	call	yymatchString
	.loc 1 191 64
	testl	%eax, %eax
	jne	.L901
	.loc 1 191 92 discriminator 1
	nop
.L429:
	endbr64
	.loc 1 192 20 discriminator 1
	movq	-584(%rbp), %rax
	movl	-448(%rbp), %edx
	movl	%edx, 12(%rax)
	.loc 1 192 45 discriminator 1
	movq	-584(%rbp), %rax
	movl	-444(%rbp), %edx
	movl	%edx, 60(%rax)
	.loc 1 192 67 discriminator 1
	movq	-584(%rbp), %rax
	leaq	.LC204(%rip), %rsi
	movq	%rax, %rdi
	call	yymatchString
	.loc 1 192 65 discriminator 1
	testl	%eax, %eax
	je	.L902
.LBE53:
	.loc 1 194 3
	jmp	.L430
.L901:
.LBB54:
	.loc 1 191 103
	nop
.L430:
.LBE54:
	.loc 1 194 11
	movq	-584(%rbp), %rax
	movl	40(%rax), %ecx
	movq	-584(%rbp), %rax
	movl	36(%rax), %edx
	movq	-584(%rbp), %rax
	leaq	yy_27_Op(%rip), %rsi
	movq	%rax, %rdi
	call	yyDo
	.loc 1 194 56
	jmp	.L353
.L902:
.LBB55:
	.loc 1 192 93
	nop
.L431:
	endbr64
.LBE55:
	.loc 1 195 20
	movq	-584(%rbp), %rax
	movl	-560(%rbp), %edx
	movl	%edx, 12(%rax)
	.loc 1 195 45
	movq	-584(%rbp), %rax
	movl	-556(%rbp), %edx
	movl	%edx, 60(%rax)
.LBB56:
	.loc 1 196 10
	movq	-584(%rbp), %rax
	movl	12(%rax), %eax
	movl	%eax, -440(%rbp)
	.loc 1 196 30
	movq	-584(%rbp), %rax
	movl	60(%rax), %eax
	movl	%eax, -436(%rbp)
	.loc 1 196 66
	movq	-584(%rbp), %rax
	leaq	.LC205(%rip), %rsi
	movq	%rax, %rdi
	call	yymatchString
	.loc 1 196 64
	testl	%eax, %eax
	jne	.L903
	.loc 1 196 91 discriminator 1
	nop
.L433:
	endbr64
	.loc 1 197 20 discriminator 1
	movq	-584(%rbp), %rax
	movl	-440(%rbp), %edx
	movl	%edx, 12(%rax)
	.loc 1 197 45 discriminator 1
	movq	-584(%rbp), %rax
	movl	-436(%rbp), %edx
	movl	%edx, 60(%rax)
	.loc 1 197 67 discriminator 1
	movq	-584(%rbp), %rax
	leaq	.LC206(%rip), %rsi
	movq	%rax, %rdi
	call	yymatchString
	.loc 1 197 65 discriminator 1
	testl	%eax, %eax
	je	.L904
.LBE56:
	.loc 1 199 3
	jmp	.L434
.L903:
.LBB57:
	.loc 1 196 102
	nop
.L434:
.LBE57:
	.loc 1 199 11
	movq	-584(%rbp), %rax
	movl	40(%rax), %ecx
	movq	-584(%rbp), %rax
	movl	36(%rax), %edx
	movq	-584(%rbp), %rax
	leaq	yy_28_Op(%rip), %rsi
	movq	%rax, %rdi
	call	yyDo
	.loc 1 199 56
	jmp	.L353
.L904:
.LBB58:
	.loc 1 197 93
	nop
.L435:
	endbr64
.LBE58:
	.loc 1 200 20
	movq	-584(%rbp), %rax
	movl	-560(%rbp), %edx
	movl	%edx, 12(%rax)
	.loc 1 200 45
	movq	-584(%rbp), %rax
	movl	-556(%rbp), %edx
	movl	%edx, 60(%rax)
.LBB59:
	.loc 1 201 10
	movq	-584(%rbp), %rax
	movl	12(%rax), %eax
	movl	%eax, -432(%rbp)
	.loc 1 201 30
	movq	-584(%rbp), %rax
	movl	60(%rax), %eax
	movl	%eax, -428(%rbp)
	.loc 1 201 66
	movq	-584(%rbp), %rax
	leaq	.LC207(%rip), %rsi
	movq	%rax, %rdi
	call	yymatchString
	.loc 1 201 64
	testl	%eax, %eax
	jne	.L905
	.loc 1 201 92 discriminator 1
	nop
.L437:
	endbr64
	.loc 1 202 20 discriminator 1
	movq	-584(%rbp), %rax
	movl	-432(%rbp), %edx
	movl	%edx, 12(%rax)
	.loc 1 202 45 discriminator 1
	movq	-584(%rbp), %rax
	movl	-428(%rbp), %edx
	movl	%edx, 60(%rax)
	.loc 1 202 67 discriminator 1
	movq	-584(%rbp), %rax
	leaq	.LC208(%rip), %rsi
	movq	%rax, %rdi
	call	yymatchString
	.loc 1 202 65 discriminator 1
	testl	%eax, %eax
	je	.L906
.LBE59:
	.loc 1 204 3
	jmp	.L438
.L905:
.LBB60:
	.loc 1 201 103
	nop
.L438:
.LBE60:
	.loc 1 204 11
	movq	-584(%rbp), %rax
	movl	40(%rax), %ecx
	movq	-584(%rbp), %rax
	movl	36(%rax), %edx
	movq	-584(%rbp), %rax
	leaq	yy_29_Op(%rip), %rsi
	movq	%rax, %rdi
	call	yyDo
	.loc 1 204 56
	jmp	.L353
.L906:
.LBB61:
	.loc 1 202 95
	nop
.L439:
	endbr64
.LBE61:
	.loc 1 205 20
	movq	-584(%rbp), %rax
	movl	-560(%rbp), %edx
	movl	%edx, 12(%rax)
	.loc 1 205 45
	movq	-584(%rbp), %rax
	movl	-556(%rbp), %edx
	movl	%edx, 60(%rax)
.LBB62:
	.loc 1 206 10
	movq	-584(%rbp), %rax
	movl	12(%rax), %eax
	movl	%eax, -424(%rbp)
	.loc 1 206 30
	movq	-584(%rbp), %rax
	movl	60(%rax), %eax
	movl	%eax, -420(%rbp)
	.loc 1 206 66
	movq	-584(%rbp), %rax
	leaq	.LC209(%rip), %rsi
	movq	%rax, %rdi
	call	yymatchString
	.loc 1 206 64
	testl	%eax, %eax
	jne	.L907
	.loc 1 206 92 discriminator 1
	nop
.L441:
	endbr64
	.loc 1 207 20 discriminator 1
	movq	-584(%rbp), %rax
	movl	-424(%rbp), %edx
	movl	%edx, 12(%rax)
	.loc 1 207 45 discriminator 1
	movq	-584(%rbp), %rax
	movl	-420(%rbp), %edx
	movl	%edx, 60(%rax)
	.loc 1 207 67 discriminator 1
	movq	-584(%rbp), %rax
	leaq	.LC210(%rip), %rsi
	movq	%rax, %rdi
	call	yymatchString
	.loc 1 207 65 discriminator 1
	testl	%eax, %eax
	je	.L908
.LBE62:
	.loc 1 209 3
	jmp	.L442
.L907:
.LBB63:
	.loc 1 206 103
	nop
.L442:
.LBE63:
	.loc 1 209 11
	movq	-584(%rbp), %rax
	movl	40(%rax), %ecx
	movq	-584(%rbp), %rax
	movl	36(%rax), %edx
	movq	-584(%rbp), %rax
	leaq	yy_30_Op(%rip), %rsi
	movq	%rax, %rdi
	call	yyDo
	.loc 1 209 56
	jmp	.L353
.L908:
.LBB64:
	.loc 1 207 96
	nop
.L443:
	endbr64
.LBE64:
	.loc 1 210 20
	movq	-584(%rbp), %rax
	movl	-560(%rbp), %edx
	movl	%edx, 12(%rax)
	.loc 1 210 45
	movq	-584(%rbp), %rax
	movl	-556(%rbp), %edx
	movl	%edx, 60(%rax)
	.loc 1 210 67
	movq	-584(%rbp), %rax
	leaq	.LC211(%rip), %rsi
	movq	%rax, %rdi
	call	yymatchString
	.loc 1 210 65
	testl	%eax, %eax
	je	.L909
	.loc 1 210 104 discriminator 2
	movq	-584(%rbp), %rax
	movl	40(%rax), %ecx
	movq	-584(%rbp), %rax
	movl	36(%rax), %edx
	movq	-584(%rbp), %rax
	leaq	yy_31_Op(%rip), %rsi
	movq	%rax, %rdi
	call	yyDo
	.loc 1 210 149 discriminator 2
	jmp	.L353
.L909:
	.loc 1 210 93
	nop
.L445:
	endbr64
	.loc 1 211 20
	movq	-584(%rbp), %rax
	movl	-560(%rbp), %edx
	movl	%edx, 12(%rax)
	.loc 1 211 45
	movq	-584(%rbp), %rax
	movl	-556(%rbp), %edx
	movl	%edx, 60(%rax)
	.loc 1 211 67
	movq	-584(%rbp), %rax
	leaq	.LC212(%rip), %rsi
	movq	%rax, %rdi
	call	yymatchString
	.loc 1 211 65
	testl	%eax, %eax
	je	.L910
	.loc 1 211 105 discriminator 2
	movq	-584(%rbp), %rax
	movl	40(%rax), %ecx
	movq	-584(%rbp), %rax
	movl	36(%rax), %edx
	movq	-584(%rbp), %rax
	leaq	yy_32_Op(%rip), %rsi
	movq	%rax, %rdi
	call	yyDo
	.loc 1 211 150 discriminator 2
	jmp	.L353
.L910:
	.loc 1 211 94
	nop
.L447:
	endbr64
	.loc 1 212 20
	movq	-584(%rbp), %rax
	movl	-560(%rbp), %edx
	movl	%edx, 12(%rax)
	.loc 1 212 45
	movq	-584(%rbp), %rax
	movl	-556(%rbp), %edx
	movl	%edx, 60(%rax)
.LBB65:
	.loc 1 213 10
	movq	-584(%rbp), %rax
	movl	12(%rax), %eax
	movl	%eax, -416(%rbp)
	.loc 1 213 30
	movq	-584(%rbp), %rax
	movl	60(%rax), %eax
	movl	%eax, -412(%rbp)
	.loc 1 213 66
	movq	-584(%rbp), %rax
	leaq	.LC213(%rip), %rsi
	movq	%rax, %rdi
	call	yymatchString
	.loc 1 213 64
	testl	%eax, %eax
	jne	.L911
	.loc 1 213 92 discriminator 1
	nop
.L449:
	endbr64
	.loc 1 214 20 discriminator 1
	movq	-584(%rbp), %rax
	movl	-416(%rbp), %edx
	movl	%edx, 12(%rax)
	.loc 1 214 45 discriminator 1
	movq	-584(%rbp), %rax
	movl	-412(%rbp), %edx
	movl	%edx, 60(%rax)
	.loc 1 214 67 discriminator 1
	movq	-584(%rbp), %rax
	leaq	.LC214(%rip), %rsi
	movq	%rax, %rdi
	call	yymatchString
	.loc 1 214 65 discriminator 1
	testl	%eax, %eax
	je	.L912
.LBE65:
	.loc 1 216 3
	jmp	.L450
.L911:
.LBB66:
	.loc 1 213 103
	nop
.L450:
.LBE66:
	.loc 1 216 11
	movq	-584(%rbp), %rax
	movl	40(%rax), %ecx
	movq	-584(%rbp), %rax
	movl	36(%rax), %edx
	movq	-584(%rbp), %rax
	leaq	yy_33_Op(%rip), %rsi
	movq	%rax, %rdi
	call	yyDo
	.loc 1 216 56
	jmp	.L353
.L912:
.LBB67:
	.loc 1 214 97
	nop
.L451:
	endbr64
.LBE67:
	.loc 1 217 20
	movq	-584(%rbp), %rax
	movl	-560(%rbp), %edx
	movl	%edx, 12(%rax)
	.loc 1 217 45
	movq	-584(%rbp), %rax
	movl	-556(%rbp), %edx
	movl	%edx, 60(%rax)
.LBB68:
	.loc 1 218 10
	movq	-584(%rbp), %rax
	movl	12(%rax), %eax
	movl	%eax, -408(%rbp)
	.loc 1 218 30
	movq	-584(%rbp), %rax
	movl	60(%rax), %eax
	movl	%eax, -404(%rbp)
	.loc 1 218 66
	movq	-584(%rbp), %rax
	leaq	.LC215(%rip), %rsi
	movq	%rax, %rdi
	call	yymatchString
	.loc 1 218 64
	testl	%eax, %eax
	jne	.L913
	.loc 1 218 93 discriminator 1
	nop
.L453:
	endbr64
	.loc 1 219 20 discriminator 1
	movq	-584(%rbp), %rax
	movl	-408(%rbp), %edx
	movl	%edx, 12(%rax)
	.loc 1 219 45 discriminator 1
	movq	-584(%rbp), %rax
	movl	-404(%rbp), %edx
	movl	%edx, 60(%rax)
	.loc 1 219 67 discriminator 1
	movq	-584(%rbp), %rax
	leaq	.LC216(%rip), %rsi
	movq	%rax, %rdi
	call	yymatchString
	.loc 1 219 65 discriminator 1
	testl	%eax, %eax
	je	.L914
.LBE68:
	.loc 1 221 3
	jmp	.L454
.L913:
.LBB69:
	.loc 1 218 104
	nop
.L454:
.LBE69:
	.loc 1 221 11
	movq	-584(%rbp), %rax
	movl	40(%rax), %ecx
	movq	-584(%rbp), %rax
	movl	36(%rax), %edx
	movq	-584(%rbp), %rax
	leaq	yy_34_Op(%rip), %rsi
	movq	%rax, %rdi
	call	yyDo
	.loc 1 221 56
	jmp	.L353
.L914:
.LBB70:
	.loc 1 219 95
	nop
.L455:
	endbr64
.LBE70:
	.loc 1 222 20
	movq	-584(%rbp), %rax
	movl	-560(%rbp), %edx
	movl	%edx, 12(%rax)
	.loc 1 222 45
	movq	-584(%rbp), %rax
	movl	-556(%rbp), %edx
	movl	%edx, 60(%rax)
.LBB71:
	.loc 1 223 10
	movq	-584(%rbp), %rax
	movl	12(%rax), %eax
	movl	%eax, -400(%rbp)
	.loc 1 223 30
	movq	-584(%rbp), %rax
	movl	60(%rax), %eax
	movl	%eax, -396(%rbp)
	.loc 1 223 66
	movq	-584(%rbp), %rax
	leaq	.LC217(%rip), %rsi
	movq	%rax, %rdi
	call	yymatchString
	.loc 1 223 64
	testl	%eax, %eax
	jne	.L915
	.loc 1 223 91 discriminator 1
	nop
.L457:
	endbr64
	.loc 1 224 20 discriminator 1
	movq	-584(%rbp), %rax
	movl	-400(%rbp), %edx
	movl	%edx, 12(%rax)
	.loc 1 224 45 discriminator 1
	movq	-584(%rbp), %rax
	movl	-396(%rbp), %edx
	movl	%edx, 60(%rax)
	.loc 1 224 67 discriminator 1
	movq	-584(%rbp), %rax
	leaq	.LC218(%rip), %rsi
	movq	%rax, %rdi
	call	yymatchString
	.loc 1 224 65 discriminator 1
	testl	%eax, %eax
	je	.L916
.LBE71:
	.loc 1 226 3
	jmp	.L458
.L915:
.LBB72:
	.loc 1 223 102
	nop
.L458:
.LBE72:
	.loc 1 226 11
	movq	-584(%rbp), %rax
	movl	40(%rax), %ecx
	movq	-584(%rbp), %rax
	movl	36(%rax), %edx
	movq	-584(%rbp), %rax
	leaq	yy_35_Op(%rip), %rsi
	movq	%rax, %rdi
	call	yyDo
	.loc 1 226 56
	jmp	.L353
.L916:
.LBB73:
	.loc 1 224 92
	nop
.L459:
	endbr64
.LBE73:
	.loc 1 227 20
	movq	-584(%rbp), %rax
	movl	-560(%rbp), %edx
	movl	%edx, 12(%rax)
	.loc 1 227 45
	movq	-584(%rbp), %rax
	movl	-556(%rbp), %edx
	movl	%edx, 60(%rax)
.LBB74:
	.loc 1 228 10
	movq	-584(%rbp), %rax
	movl	12(%rax), %eax
	movl	%eax, -392(%rbp)
	.loc 1 228 30
	movq	-584(%rbp), %rax
	movl	60(%rax), %eax
	movl	%eax, -388(%rbp)
	.loc 1 228 66
	movq	-584(%rbp), %rax
	leaq	.LC219(%rip), %rsi
	movq	%rax, %rdi
	call	yymatchString
	.loc 1 228 64
	testl	%eax, %eax
	jne	.L917
	.loc 1 228 91 discriminator 1
	nop
.L461:
	endbr64
	.loc 1 229 20 discriminator 1
	movq	-584(%rbp), %rax
	movl	-392(%rbp), %edx
	movl	%edx, 12(%rax)
	.loc 1 229 45 discriminator 1
	movq	-584(%rbp), %rax
	movl	-388(%rbp), %edx
	movl	%edx, 60(%rax)
	.loc 1 229 67 discriminator 1
	movq	-584(%rbp), %rax
	leaq	.LC220(%rip), %rsi
	movq	%rax, %rdi
	call	yymatchString
	.loc 1 229 65 discriminator 1
	testl	%eax, %eax
	je	.L918
.LBE74:
	.loc 1 231 3
	jmp	.L462
.L917:
.LBB75:
	.loc 1 228 102
	nop
.L462:
.LBE75:
	.loc 1 231 11
	movq	-584(%rbp), %rax
	movl	40(%rax), %ecx
	movq	-584(%rbp), %rax
	movl	36(%rax), %edx
	movq	-584(%rbp), %rax
	leaq	yy_36_Op(%rip), %rsi
	movq	%rax, %rdi
	call	yyDo
	.loc 1 231 56
	jmp	.L353
.L918:
.LBB76:
	.loc 1 229 98
	nop
.L463:
	endbr64
.LBE76:
	.loc 1 232 20
	movq	-584(%rbp), %rax
	movl	-560(%rbp), %edx
	movl	%edx, 12(%rax)
	.loc 1 232 45
	movq	-584(%rbp), %rax
	movl	-556(%rbp), %edx
	movl	%edx, 60(%rax)
.LBB77:
	.loc 1 233 10
	movq	-584(%rbp), %rax
	movl	12(%rax), %eax
	movl	%eax, -384(%rbp)
	.loc 1 233 30
	movq	-584(%rbp), %rax
	movl	60(%rax), %eax
	movl	%eax, -380(%rbp)
	.loc 1 233 66
	movq	-584(%rbp), %rax
	leaq	.LC221(%rip), %rsi
	movq	%rax, %rdi
	call	yymatchString
	.loc 1 233 64
	testl	%eax, %eax
	jne	.L919
	.loc 1 233 91 discriminator 1
	nop
.L465:
	endbr64
	.loc 1 234 20 discriminator 1
	movq	-584(%rbp), %rax
	movl	-384(%rbp), %edx
	movl	%edx, 12(%rax)
	.loc 1 234 45 discriminator 1
	movq	-584(%rbp), %rax
	movl	-380(%rbp), %edx
	movl	%edx, 60(%rax)
	.loc 1 234 67 discriminator 1
	movq	-584(%rbp), %rax
	leaq	.LC222(%rip), %rsi
	movq	%rax, %rdi
	call	yymatchString
	.loc 1 234 65 discriminator 1
	testl	%eax, %eax
	je	.L920
.LBE77:
	.loc 1 236 3
	jmp	.L466
.L919:
.LBB78:
	.loc 1 233 102
	nop
.L466:
.LBE78:
	.loc 1 236 11
	movq	-584(%rbp), %rax
	movl	40(%rax), %ecx
	movq	-584(%rbp), %rax
	movl	36(%rax), %edx
	movq	-584(%rbp), %rax
	leaq	yy_37_Op(%rip), %rsi
	movq	%rax, %rdi
	call	yyDo
	.loc 1 236 56
	jmp	.L353
.L920:
.LBB79:
	.loc 1 234 95
	nop
.L467:
	endbr64
.LBE79:
	.loc 1 237 20
	movq	-584(%rbp), %rax
	movl	-560(%rbp), %edx
	movl	%edx, 12(%rax)
	.loc 1 237 45
	movq	-584(%rbp), %rax
	movl	-556(%rbp), %edx
	movl	%edx, 60(%rax)
	.loc 1 237 67
	movq	-584(%rbp), %rax
	leaq	.LC223(%rip), %rsi
	movq	%rax, %rdi
	call	yymatchString
	.loc 1 237 65
	testl	%eax, %eax
	je	.L921
	.loc 1 237 106 discriminator 2
	movq	-584(%rbp), %rax
	movl	40(%rax), %ecx
	movq	-584(%rbp), %rax
	movl	36(%rax), %edx
	movq	-584(%rbp), %rax
	leaq	yy_38_Op(%rip), %rsi
	movq	%rax, %rdi
	call	yyDo
	.loc 1 237 151 discriminator 2
	jmp	.L353
.L921:
	.loc 1 237 95
	nop
.L469:
	endbr64
	.loc 1 238 20
	movq	-584(%rbp), %rax
	movl	-560(%rbp), %edx
	movl	%edx, 12(%rax)
	.loc 1 238 45
	movq	-584(%rbp), %rax
	movl	-556(%rbp), %edx
	movl	%edx, 60(%rax)
.LBB80:
	.loc 1 239 10
	movq	-584(%rbp), %rax
	movl	12(%rax), %eax
	movl	%eax, -376(%rbp)
	.loc 1 239 31
	movq	-584(%rbp), %rax
	movl	60(%rax), %eax
	movl	%eax, -372(%rbp)
	.loc 1 239 68
	movq	-584(%rbp), %rax
	leaq	.LC224(%rip), %rsi
	movq	%rax, %rdi
	call	yymatchString
	.loc 1 239 66
	testl	%eax, %eax
	jne	.L922
	.loc 1 239 94 discriminator 1
	nop
.L471:
	endbr64
	.loc 1 240 21 discriminator 1
	movq	-584(%rbp), %rax
	movl	-376(%rbp), %edx
	movl	%edx, 12(%rax)
	.loc 1 240 47 discriminator 1
	movq	-584(%rbp), %rax
	movl	-372(%rbp), %edx
	movl	%edx, 60(%rax)
	.loc 1 240 70 discriminator 1
	movq	-584(%rbp), %rax
	leaq	.LC225(%rip), %rsi
	movq	%rax, %rdi
	call	yymatchString
	.loc 1 240 68 discriminator 1
	testl	%eax, %eax
	je	.L923
.LBE80:
	.loc 1 242 3
	jmp	.L472
.L922:
.LBB81:
	.loc 1 239 106
	nop
.L472:
.LBE81:
	.loc 1 242 12
	movq	-584(%rbp), %rax
	movl	40(%rax), %ecx
	movq	-584(%rbp), %rax
	movl	36(%rax), %edx
	movq	-584(%rbp), %rax
	leaq	yy_39_Op(%rip), %rsi
	movq	%rax, %rdi
	call	yyDo
	.loc 1 242 57
	jmp	.L353
.L923:
.LBB82:
	.loc 1 240 98
	nop
.L473:
	endbr64
.LBE82:
	.loc 1 243 20
	movq	-584(%rbp), %rax
	movl	-560(%rbp), %edx
	movl	%edx, 12(%rax)
	.loc 1 243 45
	movq	-584(%rbp), %rax
	movl	-556(%rbp), %edx
	movl	%edx, 60(%rax)
.LBB83:
	.loc 1 244 10
	movq	-584(%rbp), %rax
	movl	12(%rax), %eax
	movl	%eax, -368(%rbp)
	.loc 1 244 31
	movq	-584(%rbp), %rax
	movl	60(%rax), %eax
	movl	%eax, -364(%rbp)
	.loc 1 244 68
	movq	-584(%rbp), %rax
	leaq	.LC226(%rip), %rsi
	movq	%rax, %rdi
	call	yymatchString
	.loc 1 244 66
	testl	%eax, %eax
	jne	.L924
	.loc 1 244 93 discriminator 1
	nop
.L475:
	endbr64
	.loc 1 245 21 discriminator 1
	movq	-584(%rbp), %rax
	movl	-368(%rbp), %edx
	movl	%edx, 12(%rax)
	.loc 1 245 47 discriminator 1
	movq	-584(%rbp), %rax
	movl	-364(%rbp), %edx
	movl	%edx, 60(%rax)
	.loc 1 245 70 discriminator 1
	movq	-584(%rbp), %rax
	leaq	.LC227(%rip), %rsi
	movq	%rax, %rdi
	call	yymatchString
	.loc 1 245 68 discriminator 1
	testl	%eax, %eax
	je	.L925
.LBE83:
	.loc 1 247 3
	jmp	.L476
.L924:
.LBB84:
	.loc 1 244 105
	nop
.L476:
.LBE84:
	.loc 1 247 12
	movq	-584(%rbp), %rax
	movl	40(%rax), %ecx
	movq	-584(%rbp), %rax
	movl	36(%rax), %edx
	movq	-584(%rbp), %rax
	leaq	yy_40_Op(%rip), %rsi
	movq	%rax, %rdi
	call	yyDo
	.loc 1 247 57
	jmp	.L353
.L925:
.LBB85:
	.loc 1 245 102
	nop
.L477:
	endbr64
.LBE85:
	.loc 1 248 21
	movq	-584(%rbp), %rax
	movl	-560(%rbp), %edx
	movl	%edx, 12(%rax)
	.loc 1 248 46
	movq	-584(%rbp), %rax
	movl	-556(%rbp), %edx
	movl	%edx, 60(%rax)
.LBB86:
	.loc 1 249 10
	movq	-584(%rbp), %rax
	movl	12(%rax), %eax
	movl	%eax, -360(%rbp)
	.loc 1 249 31
	movq	-584(%rbp), %rax
	movl	60(%rax), %eax
	movl	%eax, -356(%rbp)
	.loc 1 249 68
	movq	-584(%rbp), %rax
	leaq	.LC228(%rip), %rsi
	movq	%rax, %rdi
	call	yymatchString
	.loc 1 249 66
	testl	%eax, %eax
	jne	.L926
	.loc 1 249 95 discriminator 1
	nop
.L479:
	endbr64
	.loc 1 250 21 discriminator 1
	movq	-584(%rbp), %rax
	movl	-360(%rbp), %edx
	movl	%edx, 12(%rax)
	.loc 1 250 47 discriminator 1
	movq	-584(%rbp), %rax
	movl	-356(%rbp), %edx
	movl	%edx, 60(%rax)
	.loc 1 250 70 discriminator 1
	movq	-584(%rbp), %rax
	leaq	.LC229(%rip), %rsi
	movq	%rax, %rdi
	call	yymatchString
	.loc 1 250 68 discriminator 1
	testl	%eax, %eax
	je	.L927
.LBE86:
	.loc 1 252 3
	jmp	.L480
.L926:
.LBB87:
	.loc 1 249 107
	nop
.L480:
.LBE87:
	.loc 1 252 12
	movq	-584(%rbp), %rax
	movl	40(%rax), %ecx
	movq	-584(%rbp), %rax
	movl	36(%rax), %edx
	movq	-584(%rbp), %rax
	leaq	yy_41_Op(%rip), %rsi
	movq	%rax, %rdi
	call	yyDo
	.loc 1 252 57
	jmp	.L353
.L927:
.LBB88:
	.loc 1 250 101
	nop
.L481:
	endbr64
.LBE88:
	.loc 1 253 21
	movq	-584(%rbp), %rax
	movl	-560(%rbp), %edx
	movl	%edx, 12(%rax)
	.loc 1 253 46
	movq	-584(%rbp), %rax
	movl	-556(%rbp), %edx
	movl	%edx, 60(%rax)
.LBB89:
	.loc 1 254 10
	movq	-584(%rbp), %rax
	movl	12(%rax), %eax
	movl	%eax, -352(%rbp)
	.loc 1 254 31
	movq	-584(%rbp), %rax
	movl	60(%rax), %eax
	movl	%eax, -348(%rbp)
	.loc 1 254 68
	movq	-584(%rbp), %rax
	leaq	.LC230(%rip), %rsi
	movq	%rax, %rdi
	call	yymatchString
	.loc 1 254 66
	testl	%eax, %eax
	jne	.L928
	.loc 1 254 93 discriminator 1
	nop
.L483:
	endbr64
	.loc 1 255 21 discriminator 1
	movq	-584(%rbp), %rax
	movl	-352(%rbp), %edx
	movl	%edx, 12(%rax)
	.loc 1 255 47 discriminator 1
	movq	-584(%rbp), %rax
	movl	-348(%rbp), %edx
	movl	%edx, 60(%rax)
	.loc 1 255 70 discriminator 1
	movq	-584(%rbp), %rax
	leaq	.LC231(%rip), %rsi
	movq	%rax, %rdi
	call	yymatchString
	.loc 1 255 68 discriminator 1
	testl	%eax, %eax
	je	.L929
.LBE89:
	.loc 1 257 3
	jmp	.L484
.L928:
.LBB90:
	.loc 1 254 105
	nop
.L484:
.LBE90:
	.loc 1 257 12
	movq	-584(%rbp), %rax
	movl	40(%rax), %ecx
	movq	-584(%rbp), %rax
	movl	36(%rax), %edx
	movq	-584(%rbp), %rax
	leaq	yy_42_Op(%rip), %rsi
	movq	%rax, %rdi
	call	yyDo
	.loc 1 257 57
	jmp	.L353
.L929:
.LBB91:
	.loc 1 255 98
	nop
.L485:
	endbr64
.LBE91:
	.loc 1 258 21
	movq	-584(%rbp), %rax
	movl	-560(%rbp), %edx
	movl	%edx, 12(%rax)
	.loc 1 258 46
	movq	-584(%rbp), %rax
	movl	-556(%rbp), %edx
	movl	%edx, 60(%rax)
.LBB92:
	.loc 1 259 10
	movq	-584(%rbp), %rax
	movl	12(%rax), %eax
	movl	%eax, -344(%rbp)
	.loc 1 259 31
	movq	-584(%rbp), %rax
	movl	60(%rax), %eax
	movl	%eax, -340(%rbp)
	.loc 1 259 68
	movq	-584(%rbp), %rax
	movl	$39, %esi
	movq	%rax, %rdi
	call	yymatchChar
	.loc 1 259 66
	testl	%eax, %eax
	jne	.L930
	.loc 1 259 91 discriminator 1
	nop
.L487:
	endbr64
	.loc 1 260 21 discriminator 1
	movq	-584(%rbp), %rax
	movl	-344(%rbp), %edx
	movl	%edx, 12(%rax)
	.loc 1 260 47 discriminator 1
	movq	-584(%rbp), %rax
	movl	-340(%rbp), %edx
	movl	%edx, 60(%rax)
	.loc 1 260 70 discriminator 1
	movq	-584(%rbp), %rax
	leaq	.LC232(%rip), %rsi
	movq	%rax, %rdi
	call	yymatchString
	.loc 1 260 68 discriminator 1
	testl	%eax, %eax
	je	.L931
.LBE92:
	.loc 1 262 3
	jmp	.L488
.L930:
.LBB93:
	.loc 1 259 103
	nop
.L488:
.LBE93:
	.loc 1 262 12
	movq	-584(%rbp), %rax
	movl	40(%rax), %ecx
	movq	-584(%rbp), %rax
	movl	36(%rax), %edx
	movq	-584(%rbp), %rax
	leaq	yy_43_Op(%rip), %rsi
	movq	%rax, %rdi
	call	yyDo
	.loc 1 262 57
	jmp	.L353
.L931:
.LBB94:
	.loc 1 260 98
	nop
.L489:
	endbr64
.LBE94:
	.loc 1 263 21
	movq	-584(%rbp), %rax
	movl	-560(%rbp), %edx
	movl	%edx, 12(%rax)
	.loc 1 263 46
	movq	-584(%rbp), %rax
	movl	-556(%rbp), %edx
	movl	%edx, 60(%rax)
	.loc 1 263 68
	movq	-584(%rbp), %rax
	leaq	.LC233(%rip), %rsi
	movq	%rax, %rdi
	call	yymatchString
	.loc 1 263 66
	testl	%eax, %eax
	je	.L932
	.loc 1 263 106 discriminator 2
	movq	-584(%rbp), %rax
	movl	40(%rax), %ecx
	movq	-584(%rbp), %rax
	movl	36(%rax), %edx
	movq	-584(%rbp), %rax
	leaq	yy_44_Op(%rip), %rsi
	movq	%rax, %rdi
	call	yyDo
	.loc 1 263 151 discriminator 2
	jmp	.L353
.L932:
	.loc 1 263 94
	nop
.L491:
	endbr64
	.loc 1 264 21
	movq	-584(%rbp), %rax
	movl	-560(%rbp), %edx
	movl	%edx, 12(%rax)
	.loc 1 264 46
	movq	-584(%rbp), %rax
	movl	-556(%rbp), %edx
	movl	%edx, 60(%rax)
	.loc 1 264 68
	movq	-584(%rbp), %rax
	leaq	.LC234(%rip), %rsi
	movq	%rax, %rdi
	call	yymatchString
	.loc 1 264 66
	testl	%eax, %eax
	je	.L933
	.loc 1 264 108 discriminator 2
	movq	-584(%rbp), %rax
	movl	40(%rax), %ecx
	movq	-584(%rbp), %rax
	movl	36(%rax), %edx
	movq	-584(%rbp), %rax
	leaq	yy_45_Op(%rip), %rsi
	movq	%rax, %rdi
	call	yyDo
	.loc 1 264 153 discriminator 2
	jmp	.L353
.L933:
	.loc 1 264 96
	nop
.L493:
	endbr64
	.loc 1 265 21
	movq	-584(%rbp), %rax
	movl	-560(%rbp), %edx
	movl	%edx, 12(%rax)
	.loc 1 265 46
	movq	-584(%rbp), %rax
	movl	-556(%rbp), %edx
	movl	%edx, 60(%rax)
	.loc 1 265 68
	movq	-584(%rbp), %rax
	leaq	.LC235(%rip), %rsi
	movq	%rax, %rdi
	call	yymatchString
	.loc 1 265 66
	testl	%eax, %eax
	je	.L934
	.loc 1 265 107 discriminator 2
	movq	-584(%rbp), %rax
	movl	40(%rax), %ecx
	movq	-584(%rbp), %rax
	movl	36(%rax), %edx
	movq	-584(%rbp), %rax
	leaq	yy_46_Op(%rip), %rsi
	movq	%rax, %rdi
	call	yyDo
	.loc 1 265 152 discriminator 2
	jmp	.L353
.L934:
	.loc 1 265 95
	nop
.L495:
	endbr64
	.loc 1 266 21
	movq	-584(%rbp), %rax
	movl	-560(%rbp), %edx
	movl	%edx, 12(%rax)
	.loc 1 266 46
	movq	-584(%rbp), %rax
	movl	-556(%rbp), %edx
	movl	%edx, 60(%rax)
	.loc 1 266 68
	movq	-584(%rbp), %rax
	leaq	.LC236(%rip), %rsi
	movq	%rax, %rdi
	call	yymatchString
	.loc 1 266 66
	testl	%eax, %eax
	je	.L935
	.loc 1 266 108 discriminator 2
	movq	-584(%rbp), %rax
	movl	40(%rax), %ecx
	movq	-584(%rbp), %rax
	movl	36(%rax), %edx
	movq	-584(%rbp), %rax
	leaq	yy_47_Op(%rip), %rsi
	movq	%rax, %rdi
	call	yyDo
	.loc 1 266 153 discriminator 2
	jmp	.L353
.L935:
	.loc 1 266 96
	nop
.L497:
	endbr64
	.loc 1 267 21
	movq	-584(%rbp), %rax
	movl	-560(%rbp), %edx
	movl	%edx, 12(%rax)
	.loc 1 267 46
	movq	-584(%rbp), %rax
	movl	-556(%rbp), %edx
	movl	%edx, 60(%rax)
	.loc 1 267 68
	movq	-584(%rbp), %rax
	leaq	.LC237(%rip), %rsi
	movq	%rax, %rdi
	call	yymatchString
	.loc 1 267 66
	testl	%eax, %eax
	je	.L936
	.loc 1 267 108 discriminator 2
	movq	-584(%rbp), %rax
	movl	40(%rax), %ecx
	movq	-584(%rbp), %rax
	movl	36(%rax), %edx
	movq	-584(%rbp), %rax
	leaq	yy_48_Op(%rip), %rsi
	movq	%rax, %rdi
	call	yyDo
	.loc 1 267 153 discriminator 2
	jmp	.L353
.L936:
	.loc 1 267 96
	nop
.L499:
	endbr64
	.loc 1 268 21
	movq	-584(%rbp), %rax
	movl	-560(%rbp), %edx
	movl	%edx, 12(%rax)
	.loc 1 268 46
	movq	-584(%rbp), %rax
	movl	-556(%rbp), %edx
	movl	%edx, 60(%rax)
	.loc 1 268 68
	movq	-584(%rbp), %rax
	leaq	.LC238(%rip), %rsi
	movq	%rax, %rdi
	call	yymatchString
	.loc 1 268 66
	testl	%eax, %eax
	je	.L937
	.loc 1 268 108 discriminator 2
	movq	-584(%rbp), %rax
	movl	40(%rax), %ecx
	movq	-584(%rbp), %rax
	movl	36(%rax), %edx
	movq	-584(%rbp), %rax
	leaq	yy_49_Op(%rip), %rsi
	movq	%rax, %rdi
	call	yyDo
	.loc 1 268 153 discriminator 2
	jmp	.L353
.L937:
	.loc 1 268 96
	nop
.L501:
	endbr64
	.loc 1 269 21
	movq	-584(%rbp), %rax
	movl	-560(%rbp), %edx
	movl	%edx, 12(%rax)
	.loc 1 269 46
	movq	-584(%rbp), %rax
	movl	-556(%rbp), %edx
	movl	%edx, 60(%rax)
	.loc 1 269 68
	movq	-584(%rbp), %rax
	leaq	.LC239(%rip), %rsi
	movq	%rax, %rdi
	call	yymatchString
	.loc 1 269 66
	testl	%eax, %eax
	je	.L938
	.loc 1 269 108 discriminator 2
	movq	-584(%rbp), %rax
	movl	40(%rax), %ecx
	movq	-584(%rbp), %rax
	movl	36(%rax), %edx
	movq	-584(%rbp), %rax
	leaq	yy_50_Op(%rip), %rsi
	movq	%rax, %rdi
	call	yyDo
	.loc 1 269 153 discriminator 2
	jmp	.L353
.L938:
	.loc 1 269 96
	nop
.L503:
	endbr64
	.loc 1 270 21
	movq	-584(%rbp), %rax
	movl	-560(%rbp), %edx
	movl	%edx, 12(%rax)
	.loc 1 270 46
	movq	-584(%rbp), %rax
	movl	-556(%rbp), %edx
	movl	%edx, 60(%rax)
	.loc 1 270 68
	movq	-584(%rbp), %rax
	leaq	.LC240(%rip), %rsi
	movq	%rax, %rdi
	call	yymatchString
	.loc 1 270 66
	testl	%eax, %eax
	je	.L939
	.loc 1 270 110 discriminator 2
	movq	-584(%rbp), %rax
	movl	40(%rax), %ecx
	movq	-584(%rbp), %rax
	movl	36(%rax), %edx
	movq	-584(%rbp), %rax
	leaq	yy_51_Op(%rip), %rsi
	movq	%rax, %rdi
	call	yyDo
	.loc 1 270 155 discriminator 2
	jmp	.L353
.L939:
	.loc 1 270 98
	nop
.L505:
	endbr64
	.loc 1 271 21
	movq	-584(%rbp), %rax
	movl	-560(%rbp), %edx
	movl	%edx, 12(%rax)
	.loc 1 271 46
	movq	-584(%rbp), %rax
	movl	-556(%rbp), %edx
	movl	%edx, 60(%rax)
	.loc 1 271 68
	movq	-584(%rbp), %rax
	leaq	.LC241(%rip), %rsi
	movq	%rax, %rdi
	call	yymatchString
	.loc 1 271 66
	testl	%eax, %eax
	je	.L940
	.loc 1 271 109 discriminator 2
	movq	-584(%rbp), %rax
	movl	40(%rax), %ecx
	movq	-584(%rbp), %rax
	movl	36(%rax), %edx
	movq	-584(%rbp), %rax
	leaq	yy_52_Op(%rip), %rsi
	movq	%rax, %rdi
	call	yyDo
	.loc 1 271 154 discriminator 2
	jmp	.L353
.L940:
	.loc 1 271 97
	nop
.L507:
	endbr64
	.loc 1 272 21
	movq	-584(%rbp), %rax
	movl	-560(%rbp), %edx
	movl	%edx, 12(%rax)
	.loc 1 272 46
	movq	-584(%rbp), %rax
	movl	-556(%rbp), %edx
	movl	%edx, 60(%rax)
.LBB95:
	.loc 1 273 10
	movq	-584(%rbp), %rax
	movl	12(%rax), %eax
	movl	%eax, -336(%rbp)
	.loc 1 273 31
	movq	-584(%rbp), %rax
	movl	60(%rax), %eax
	movl	%eax, -332(%rbp)
	.loc 1 273 68
	movq	-584(%rbp), %rax
	leaq	.LC242(%rip), %rsi
	movq	%rax, %rdi
	call	yymatchString
	.loc 1 273 66
	testl	%eax, %eax
	jne	.L941
	.loc 1 273 94 discriminator 1
	nop
.L509:
	endbr64
	.loc 1 274 21 discriminator 1
	movq	-584(%rbp), %rax
	movl	-336(%rbp), %edx
	movl	%edx, 12(%rax)
	.loc 1 274 47 discriminator 1
	movq	-584(%rbp), %rax
	movl	-332(%rbp), %edx
	movl	%edx, 60(%rax)
	.loc 1 274 70 discriminator 1
	movq	-584(%rbp), %rax
	leaq	.LC243(%rip), %rsi
	movq	%rax, %rdi
	call	yymatchString
	.loc 1 274 68 discriminator 1
	testl	%eax, %eax
	je	.L942
.LBE95:
	.loc 1 276 3
	jmp	.L510
.L941:
.LBB96:
	.loc 1 273 106
	nop
.L510:
.LBE96:
	.loc 1 276 12
	movq	-584(%rbp), %rax
	movl	40(%rax), %ecx
	movq	-584(%rbp), %rax
	movl	36(%rax), %edx
	movq	-584(%rbp), %rax
	leaq	yy_53_Op(%rip), %rsi
	movq	%rax, %rdi
	call	yyDo
	.loc 1 276 57
	jmp	.L353
.L942:
.LBB97:
	.loc 1 274 99
	nop
.L511:
	endbr64
.LBE97:
	.loc 1 277 21
	movq	-584(%rbp), %rax
	movl	-560(%rbp), %edx
	movl	%edx, 12(%rax)
	.loc 1 277 46
	movq	-584(%rbp), %rax
	movl	-556(%rbp), %edx
	movl	%edx, 60(%rax)
.LBB98:
	.loc 1 278 10
	movq	-584(%rbp), %rax
	movl	12(%rax), %eax
	movl	%eax, -328(%rbp)
	.loc 1 278 31
	movq	-584(%rbp), %rax
	movl	60(%rax), %eax
	movl	%eax, -324(%rbp)
	.loc 1 278 68
	movq	-584(%rbp), %rax
	leaq	.LC244(%rip), %rsi
	movq	%rax, %rdi
	call	yymatchString
	.loc 1 278 66
	testl	%eax, %eax
	jne	.L943
	.loc 1 278 94 discriminator 1
	nop
.L513:
	endbr64
	.loc 1 279 21 discriminator 1
	movq	-584(%rbp), %rax
	movl	-328(%rbp), %edx
	movl	%edx, 12(%rax)
	.loc 1 279 47 discriminator 1
	movq	-584(%rbp), %rax
	movl	-324(%rbp), %edx
	movl	%edx, 60(%rax)
	.loc 1 279 70 discriminator 1
	movq	-584(%rbp), %rax
	leaq	.LC245(%rip), %rsi
	movq	%rax, %rdi
	call	yymatchString
	.loc 1 279 68 discriminator 1
	testl	%eax, %eax
	je	.L944
.LBE98:
	.loc 1 281 3
	jmp	.L514
.L943:
.LBB99:
	.loc 1 278 106
	nop
.L514:
.LBE99:
	.loc 1 281 12
	movq	-584(%rbp), %rax
	movl	40(%rax), %ecx
	movq	-584(%rbp), %rax
	movl	36(%rax), %edx
	movq	-584(%rbp), %rax
	leaq	yy_54_Op(%rip), %rsi
	movq	%rax, %rdi
	call	yyDo
	.loc 1 281 57
	jmp	.L353
.L944:
.LBB100:
	.loc 1 279 99
	nop
.L515:
	endbr64
.LBE100:
	.loc 1 282 21
	movq	-584(%rbp), %rax
	movl	-560(%rbp), %edx
	movl	%edx, 12(%rax)
	.loc 1 282 46
	movq	-584(%rbp), %rax
	movl	-556(%rbp), %edx
	movl	%edx, 60(%rax)
.LBB101:
	.loc 1 283 10
	movq	-584(%rbp), %rax
	movl	12(%rax), %eax
	movl	%eax, -320(%rbp)
	.loc 1 283 31
	movq	-584(%rbp), %rax
	movl	60(%rax), %eax
	movl	%eax, -316(%rbp)
	.loc 1 283 68
	movq	-584(%rbp), %rax
	leaq	.LC246(%rip), %rsi
	movq	%rax, %rdi
	call	yymatchString
	.loc 1 283 66
	testl	%eax, %eax
	jne	.L945
	.loc 1 283 93 discriminator 1
	nop
.L517:
	endbr64
	.loc 1 284 21 discriminator 1
	movq	-584(%rbp), %rax
	movl	-320(%rbp), %edx
	movl	%edx, 12(%rax)
	.loc 1 284 47 discriminator 1
	movq	-584(%rbp), %rax
	movl	-316(%rbp), %edx
	movl	%edx, 60(%rax)
	.loc 1 284 70 discriminator 1
	movq	-584(%rbp), %rax
	leaq	.LC247(%rip), %rsi
	movq	%rax, %rdi
	call	yymatchString
	.loc 1 284 68 discriminator 1
	testl	%eax, %eax
	je	.L946
.LBE101:
	.loc 1 286 3
	jmp	.L518
.L945:
.LBB102:
	.loc 1 283 105
	nop
.L518:
.LBE102:
	.loc 1 286 12
	movq	-584(%rbp), %rax
	movl	40(%rax), %ecx
	movq	-584(%rbp), %rax
	movl	36(%rax), %edx
	movq	-584(%rbp), %rax
	leaq	yy_55_Op(%rip), %rsi
	movq	%rax, %rdi
	call	yyDo
	.loc 1 286 57
	jmp	.L353
.L946:
.LBB103:
	.loc 1 284 101
	nop
.L519:
	endbr64
.LBE103:
	.loc 1 287 21
	movq	-584(%rbp), %rax
	movl	-560(%rbp), %edx
	movl	%edx, 12(%rax)
	.loc 1 287 46
	movq	-584(%rbp), %rax
	movl	-556(%rbp), %edx
	movl	%edx, 60(%rax)
.LBB104:
	.loc 1 288 10
	movq	-584(%rbp), %rax
	movl	12(%rax), %eax
	movl	%eax, -312(%rbp)
	.loc 1 288 31
	movq	-584(%rbp), %rax
	movl	60(%rax), %eax
	movl	%eax, -308(%rbp)
	.loc 1 288 68
	movq	-584(%rbp), %rax
	leaq	.LC248(%rip), %rsi
	movq	%rax, %rdi
	call	yymatchString
	.loc 1 288 66
	testl	%eax, %eax
	jne	.L947
	.loc 1 288 93 discriminator 1
	nop
.L521:
	endbr64
	.loc 1 289 21 discriminator 1
	movq	-584(%rbp), %rax
	movl	-312(%rbp), %edx
	movl	%edx, 12(%rax)
	.loc 1 289 47 discriminator 1
	movq	-584(%rbp), %rax
	movl	-308(%rbp), %edx
	movl	%edx, 60(%rax)
	.loc 1 289 70 discriminator 1
	movq	-584(%rbp), %rax
	leaq	.LC249(%rip), %rsi
	movq	%rax, %rdi
	call	yymatchString
	.loc 1 289 68 discriminator 1
	testl	%eax, %eax
	je	.L948
.LBE104:
	.loc 1 291 3
	jmp	.L522
.L947:
.LBB105:
	.loc 1 288 105
	nop
.L522:
.LBE105:
	.loc 1 291 12
	movq	-584(%rbp), %rax
	movl	40(%rax), %ecx
	movq	-584(%rbp), %rax
	movl	36(%rax), %edx
	movq	-584(%rbp), %rax
	leaq	yy_56_Op(%rip), %rsi
	movq	%rax, %rdi
	call	yyDo
	.loc 1 291 57
	jmp	.L353
.L948:
.LBB106:
	.loc 1 289 101
	nop
.L523:
	endbr64
.LBE106:
	.loc 1 292 21
	movq	-584(%rbp), %rax
	movl	-560(%rbp), %edx
	movl	%edx, 12(%rax)
	.loc 1 292 46
	movq	-584(%rbp), %rax
	movl	-556(%rbp), %edx
	movl	%edx, 60(%rax)
	.loc 1 292 68
	movq	-584(%rbp), %rax
	leaq	.LC250(%rip), %rsi
	movq	%rax, %rdi
	call	yymatchString
	.loc 1 292 66
	testl	%eax, %eax
	je	.L949
	.loc 1 292 105 discriminator 2
	movq	-584(%rbp), %rax
	movl	40(%rax), %ecx
	movq	-584(%rbp), %rax
	movl	36(%rax), %edx
	movq	-584(%rbp), %rax
	leaq	yy_57_Op(%rip), %rsi
	movq	%rax, %rdi
	call	yyDo
	.loc 1 292 150 discriminator 2
	jmp	.L353
.L949:
	.loc 1 292 93
	nop
.L525:
	endbr64
	.loc 1 293 21
	movq	-584(%rbp), %rax
	movl	-560(%rbp), %edx
	movl	%edx, 12(%rax)
	.loc 1 293 46
	movq	-584(%rbp), %rax
	movl	-556(%rbp), %edx
	movl	%edx, 60(%rax)
	.loc 1 293 68
	movq	-584(%rbp), %rax
	leaq	.LC251(%rip), %rsi
	movq	%rax, %rdi
	call	yymatchString
	.loc 1 293 66
	testl	%eax, %eax
	je	.L950
	.loc 1 293 105 discriminator 2
	movq	-584(%rbp), %rax
	movl	40(%rax), %ecx
	movq	-584(%rbp), %rax
	movl	36(%rax), %edx
	movq	-584(%rbp), %rax
	leaq	yy_58_Op(%rip), %rsi
	movq	%rax, %rdi
	call	yyDo
	.loc 1 293 150 discriminator 2
	jmp	.L353
.L950:
	.loc 1 293 93
	nop
.L527:
	endbr64
	.loc 1 294 21
	movq	-584(%rbp), %rax
	movl	-560(%rbp), %edx
	movl	%edx, 12(%rax)
	.loc 1 294 46
	movq	-584(%rbp), %rax
	movl	-556(%rbp), %edx
	movl	%edx, 60(%rax)
	.loc 1 294 68
	movq	-584(%rbp), %rax
	leaq	.LC252(%rip), %rsi
	movq	%rax, %rdi
	call	yymatchString
	.loc 1 294 66
	testl	%eax, %eax
	je	.L951
	.loc 1 294 105 discriminator 2
	movq	-584(%rbp), %rax
	movl	40(%rax), %ecx
	movq	-584(%rbp), %rax
	movl	36(%rax), %edx
	movq	-584(%rbp), %rax
	leaq	yy_59_Op(%rip), %rsi
	movq	%rax, %rdi
	call	yyDo
	.loc 1 294 150 discriminator 2
	jmp	.L353
.L951:
	.loc 1 294 93
	nop
.L529:
	endbr64
	.loc 1 295 21
	movq	-584(%rbp), %rax
	movl	-560(%rbp), %edx
	movl	%edx, 12(%rax)
	.loc 1 295 46
	movq	-584(%rbp), %rax
	movl	-556(%rbp), %edx
	movl	%edx, 60(%rax)
	.loc 1 295 68
	movq	-584(%rbp), %rax
	leaq	.LC253(%rip), %rsi
	movq	%rax, %rdi
	call	yymatchString
	.loc 1 295 66
	testl	%eax, %eax
	je	.L952
	.loc 1 295 105 discriminator 2
	movq	-584(%rbp), %rax
	movl	40(%rax), %ecx
	movq	-584(%rbp), %rax
	movl	36(%rax), %edx
	movq	-584(%rbp), %rax
	leaq	yy_60_Op(%rip), %rsi
	movq	%rax, %rdi
	call	yyDo
	.loc 1 295 150 discriminator 2
	jmp	.L353
.L952:
	.loc 1 295 93
	nop
.L531:
	endbr64
	.loc 1 296 21
	movq	-584(%rbp), %rax
	movl	-560(%rbp), %edx
	movl	%edx, 12(%rax)
	.loc 1 296 46
	movq	-584(%rbp), %rax
	movl	-556(%rbp), %edx
	movl	%edx, 60(%rax)
	.loc 1 296 68
	movq	-584(%rbp), %rax
	leaq	.LC254(%rip), %rsi
	movq	%rax, %rdi
	call	yymatchString
	.loc 1 296 66
	testl	%eax, %eax
	je	.L953
	.loc 1 296 105 discriminator 2
	movq	-584(%rbp), %rax
	movl	40(%rax), %ecx
	movq	-584(%rbp), %rax
	movl	36(%rax), %edx
	movq	-584(%rbp), %rax
	leaq	yy_61_Op(%rip), %rsi
	movq	%rax, %rdi
	call	yyDo
	.loc 1 296 150 discriminator 2
	jmp	.L353
.L953:
	.loc 1 296 93
	nop
.L533:
	endbr64
	.loc 1 297 21
	movq	-584(%rbp), %rax
	movl	-560(%rbp), %edx
	movl	%edx, 12(%rax)
	.loc 1 297 46
	movq	-584(%rbp), %rax
	movl	-556(%rbp), %edx
	movl	%edx, 60(%rax)
	.loc 1 297 68
	movq	-584(%rbp), %rax
	leaq	.LC255(%rip), %rsi
	movq	%rax, %rdi
	call	yymatchString
	.loc 1 297 66
	testl	%eax, %eax
	je	.L954
	.loc 1 297 106 discriminator 2
	movq	-584(%rbp), %rax
	movl	40(%rax), %ecx
	movq	-584(%rbp), %rax
	movl	36(%rax), %edx
	movq	-584(%rbp), %rax
	leaq	yy_62_Op(%rip), %rsi
	movq	%rax, %rdi
	call	yyDo
	.loc 1 297 151 discriminator 2
	jmp	.L353
.L954:
	.loc 1 297 94
	nop
.L535:
	endbr64
	.loc 1 298 21
	movq	-584(%rbp), %rax
	movl	-560(%rbp), %edx
	movl	%edx, 12(%rax)
	.loc 1 298 46
	movq	-584(%rbp), %rax
	movl	-556(%rbp), %edx
	movl	%edx, 60(%rax)
	.loc 1 298 68
	movq	-584(%rbp), %rax
	movl	$61, %esi
	movq	%rax, %rdi
	call	yymatchChar
	.loc 1 298 66
	testl	%eax, %eax
	je	.L955
	.loc 1 298 102 discriminator 2
	movq	-584(%rbp), %rax
	movl	40(%rax), %ecx
	movq	-584(%rbp), %rax
	movl	36(%rax), %edx
	movq	-584(%rbp), %rax
	leaq	yy_63_Op(%rip), %rsi
	movq	%rax, %rdi
	call	yyDo
	.loc 1 298 147 discriminator 2
	jmp	.L353
.L955:
	.loc 1 298 90
	nop
.L537:
	endbr64
	.loc 1 299 21
	movq	-584(%rbp), %rax
	movl	-560(%rbp), %edx
	movl	%edx, 12(%rax)
	.loc 1 299 46
	movq	-584(%rbp), %rax
	movl	-556(%rbp), %edx
	movl	%edx, 60(%rax)
.LBB107:
	.loc 1 300 10
	movq	-584(%rbp), %rax
	movl	12(%rax), %eax
	movl	%eax, -304(%rbp)
	.loc 1 300 31
	movq	-584(%rbp), %rax
	movl	60(%rax), %eax
	movl	%eax, -300(%rbp)
	.loc 1 300 68
	movq	-584(%rbp), %rax
	leaq	.LC256(%rip), %rsi
	movq	%rax, %rdi
	call	yymatchString
	.loc 1 300 66
	testl	%eax, %eax
	jne	.L956
	.loc 1 300 93 discriminator 1
	nop
.L539:
	endbr64
	.loc 1 301 21 discriminator 1
	movq	-584(%rbp), %rax
	movl	-304(%rbp), %edx
	movl	%edx, 12(%rax)
	.loc 1 301 47 discriminator 1
	movq	-584(%rbp), %rax
	movl	-300(%rbp), %edx
	movl	%edx, 60(%rax)
	.loc 1 301 70 discriminator 1
	movq	-584(%rbp), %rax
	leaq	.LC257(%rip), %rsi
	movq	%rax, %rdi
	call	yymatchString
	.loc 1 301 68 discriminator 1
	testl	%eax, %eax
	je	.L957
.LBE107:
	.loc 1 303 3
	jmp	.L540
.L956:
.LBB108:
	.loc 1 300 105
	nop
.L540:
.LBE108:
	.loc 1 303 12
	movq	-584(%rbp), %rax
	movl	40(%rax), %ecx
	movq	-584(%rbp), %rax
	movl	36(%rax), %edx
	movq	-584(%rbp), %rax
	leaq	yy_64_Op(%rip), %rsi
	movq	%rax, %rdi
	call	yyDo
	.loc 1 303 57
	jmp	.L353
.L957:
.LBB109:
	.loc 1 301 95
	nop
.L541:
	endbr64
.LBE109:
	.loc 1 304 21
	movq	-584(%rbp), %rax
	movl	-560(%rbp), %edx
	movl	%edx, 12(%rax)
	.loc 1 304 46
	movq	-584(%rbp), %rax
	movl	-556(%rbp), %edx
	movl	%edx, 60(%rax)
	.loc 1 304 68
	movq	-584(%rbp), %rax
	leaq	.LC258(%rip), %rsi
	movq	%rax, %rdi
	call	yymatchString
	.loc 1 304 66
	testl	%eax, %eax
	je	.L958
	.loc 1 304 105 discriminator 2
	movq	-584(%rbp), %rax
	movl	40(%rax), %ecx
	movq	-584(%rbp), %rax
	movl	36(%rax), %edx
	movq	-584(%rbp), %rax
	leaq	yy_65_Op(%rip), %rsi
	movq	%rax, %rdi
	call	yyDo
	.loc 1 304 150 discriminator 2
	jmp	.L353
.L958:
	.loc 1 304 93
	nop
.L543:
	endbr64
	.loc 1 305 21
	movq	-584(%rbp), %rax
	movl	-560(%rbp), %edx
	movl	%edx, 12(%rax)
	.loc 1 305 46
	movq	-584(%rbp), %rax
	movl	-556(%rbp), %edx
	movl	%edx, 60(%rax)
.LBB110:
	.loc 1 306 10
	movq	-584(%rbp), %rax
	movl	12(%rax), %eax
	movl	%eax, -296(%rbp)
	.loc 1 306 31
	movq	-584(%rbp), %rax
	movl	60(%rax), %eax
	movl	%eax, -292(%rbp)
	.loc 1 306 68
	movq	-584(%rbp), %rax
	leaq	.LC259(%rip), %rsi
	movq	%rax, %rdi
	call	yymatchString
	.loc 1 306 66
	testl	%eax, %eax
	jne	.L959
	.loc 1 306 94 discriminator 1
	nop
.L545:
	endbr64
	.loc 1 307 21 discriminator 1
	movq	-584(%rbp), %rax
	movl	-296(%rbp), %edx
	movl	%edx, 12(%rax)
	.loc 1 307 47 discriminator 1
	movq	-584(%rbp), %rax
	movl	-292(%rbp), %edx
	movl	%edx, 60(%rax)
	.loc 1 307 70 discriminator 1
	movq	-584(%rbp), %rax
	leaq	.LC260(%rip), %rsi
	movq	%rax, %rdi
	call	yymatchString
	.loc 1 307 68 discriminator 1
	testl	%eax, %eax
	je	.L960
.LBE110:
	.loc 1 309 3
	jmp	.L546
.L959:
.LBB111:
	.loc 1 306 106
	nop
.L546:
.LBE111:
	.loc 1 309 12
	movq	-584(%rbp), %rax
	movl	40(%rax), %ecx
	movq	-584(%rbp), %rax
	movl	36(%rax), %edx
	movq	-584(%rbp), %rax
	leaq	yy_66_Op(%rip), %rsi
	movq	%rax, %rdi
	call	yyDo
	.loc 1 309 57
	jmp	.L353
.L960:
.LBB112:
	.loc 1 307 99
	nop
.L547:
	endbr64
.LBE112:
	.loc 1 310 21
	movq	-584(%rbp), %rax
	movl	-560(%rbp), %edx
	movl	%edx, 12(%rax)
	.loc 1 310 46
	movq	-584(%rbp), %rax
	movl	-556(%rbp), %edx
	movl	%edx, 60(%rax)
.LBB113:
	.loc 1 311 10
	movq	-584(%rbp), %rax
	movl	12(%rax), %eax
	movl	%eax, -288(%rbp)
	.loc 1 311 31
	movq	-584(%rbp), %rax
	movl	60(%rax), %eax
	movl	%eax, -284(%rbp)
	.loc 1 311 68
	movq	-584(%rbp), %rax
	leaq	.LC261(%rip), %rsi
	movq	%rax, %rdi
	call	yymatchString
	.loc 1 311 66
	testl	%eax, %eax
	jne	.L961
	.loc 1 311 93 discriminator 1
	nop
.L549:
	endbr64
	.loc 1 312 21 discriminator 1
	movq	-584(%rbp), %rax
	movl	-288(%rbp), %edx
	movl	%edx, 12(%rax)
	.loc 1 312 47 discriminator 1
	movq	-584(%rbp), %rax
	movl	-284(%rbp), %edx
	movl	%edx, 60(%rax)
	.loc 1 312 70 discriminator 1
	movq	-584(%rbp), %rax
	leaq	.LC262(%rip), %rsi
	movq	%rax, %rdi
	call	yymatchString
	.loc 1 312 68 discriminator 1
	testl	%eax, %eax
	je	.L962
.LBE113:
	.loc 1 314 3
	jmp	.L550
.L961:
.LBB114:
	.loc 1 311 105
	nop
.L550:
.LBE114:
	.loc 1 314 12
	movq	-584(%rbp), %rax
	movl	40(%rax), %ecx
	movq	-584(%rbp), %rax
	movl	36(%rax), %edx
	movq	-584(%rbp), %rax
	leaq	yy_67_Op(%rip), %rsi
	movq	%rax, %rdi
	call	yyDo
	.loc 1 314 57
	jmp	.L353
.L962:
.LBB115:
	.loc 1 312 97
	nop
.L551:
	endbr64
.LBE115:
	.loc 1 315 21
	movq	-584(%rbp), %rax
	movl	-560(%rbp), %edx
	movl	%edx, 12(%rax)
	.loc 1 315 46
	movq	-584(%rbp), %rax
	movl	-556(%rbp), %edx
	movl	%edx, 60(%rax)
.LBB116:
	.loc 1 316 10
	movq	-584(%rbp), %rax
	movl	12(%rax), %eax
	movl	%eax, -280(%rbp)
	.loc 1 316 31
	movq	-584(%rbp), %rax
	movl	60(%rax), %eax
	movl	%eax, -276(%rbp)
	.loc 1 316 68
	movq	-584(%rbp), %rax
	leaq	.LC263(%rip), %rsi
	movq	%rax, %rdi
	call	yymatchString
	.loc 1 316 66
	testl	%eax, %eax
	jne	.L963
	.loc 1 316 93 discriminator 1
	nop
.L553:
	endbr64
	.loc 1 317 21 discriminator 1
	movq	-584(%rbp), %rax
	movl	-280(%rbp), %edx
	movl	%edx, 12(%rax)
	.loc 1 317 47 discriminator 1
	movq	-584(%rbp), %rax
	movl	-276(%rbp), %edx
	movl	%edx, 60(%rax)
	.loc 1 317 70 discriminator 1
	movq	-584(%rbp), %rax
	leaq	.LC264(%rip), %rsi
	movq	%rax, %rdi
	call	yymatchString
	.loc 1 317 68 discriminator 1
	testl	%eax, %eax
	je	.L964
.LBE116:
	.loc 1 319 3
	jmp	.L554
.L963:
.LBB117:
	.loc 1 316 105
	nop
.L554:
.LBE117:
	.loc 1 319 12
	movq	-584(%rbp), %rax
	movl	40(%rax), %ecx
	movq	-584(%rbp), %rax
	movl	36(%rax), %edx
	movq	-584(%rbp), %rax
	leaq	yy_68_Op(%rip), %rsi
	movq	%rax, %rdi
	call	yyDo
	.loc 1 319 57
	jmp	.L353
.L964:
.LBB118:
	.loc 1 317 95
	nop
.L555:
	endbr64
.LBE118:
	.loc 1 320 21
	movq	-584(%rbp), %rax
	movl	-560(%rbp), %edx
	movl	%edx, 12(%rax)
	.loc 1 320 46
	movq	-584(%rbp), %rax
	movl	-556(%rbp), %edx
	movl	%edx, 60(%rax)
.LBB119:
	.loc 1 321 10
	movq	-584(%rbp), %rax
	movl	12(%rax), %eax
	movl	%eax, -272(%rbp)
	.loc 1 321 31
	movq	-584(%rbp), %rax
	movl	60(%rax), %eax
	movl	%eax, -268(%rbp)
	.loc 1 321 68
	movq	-584(%rbp), %rax
	leaq	.LC265(%rip), %rsi
	movq	%rax, %rdi
	call	yymatchString
	.loc 1 321 66
	testl	%eax, %eax
	jne	.L965
	.loc 1 321 94 discriminator 1
	nop
.L557:
	endbr64
	.loc 1 322 21 discriminator 1
	movq	-584(%rbp), %rax
	movl	-272(%rbp), %edx
	movl	%edx, 12(%rax)
	.loc 1 322 47 discriminator 1
	movq	-584(%rbp), %rax
	movl	-268(%rbp), %edx
	movl	%edx, 60(%rax)
	.loc 1 322 70 discriminator 1
	movq	-584(%rbp), %rax
	leaq	.LC266(%rip), %rsi
	movq	%rax, %rdi
	call	yymatchString
	.loc 1 322 68 discriminator 1
	testl	%eax, %eax
	je	.L966
.LBE119:
	.loc 1 324 3
	jmp	.L558
.L965:
.LBB120:
	.loc 1 321 106
	nop
.L558:
.LBE120:
	.loc 1 324 12
	movq	-584(%rbp), %rax
	movl	40(%rax), %ecx
	movq	-584(%rbp), %rax
	movl	36(%rax), %edx
	movq	-584(%rbp), %rax
	leaq	yy_69_Op(%rip), %rsi
	movq	%rax, %rdi
	call	yyDo
	.loc 1 324 57
	jmp	.L353
.L966:
.LBB121:
	.loc 1 322 96
	nop
.L559:
	endbr64
.LBE121:
	.loc 1 325 21
	movq	-584(%rbp), %rax
	movl	-560(%rbp), %edx
	movl	%edx, 12(%rax)
	.loc 1 325 46
	movq	-584(%rbp), %rax
	movl	-556(%rbp), %edx
	movl	%edx, 60(%rax)
	.loc 1 325 68
	movq	-584(%rbp), %rax
	movl	$60, %esi
	movq	%rax, %rdi
	call	yymatchChar
	.loc 1 325 66
	testl	%eax, %eax
	je	.L967
	.loc 1 325 102 discriminator 2
	movq	-584(%rbp), %rax
	movl	40(%rax), %ecx
	movq	-584(%rbp), %rax
	movl	36(%rax), %edx
	movq	-584(%rbp), %rax
	leaq	yy_70_Op(%rip), %rsi
	movq	%rax, %rdi
	call	yyDo
	.loc 1 325 147 discriminator 2
	jmp	.L353
.L967:
	.loc 1 325 90
	nop
.L561:
	endbr64
	.loc 1 326 21
	movq	-584(%rbp), %rax
	movl	-560(%rbp), %edx
	movl	%edx, 12(%rax)
	.loc 1 326 46
	movq	-584(%rbp), %rax
	movl	-556(%rbp), %edx
	movl	%edx, 60(%rax)
.LBB122:
	.loc 1 327 10
	movq	-584(%rbp), %rax
	movl	12(%rax), %eax
	movl	%eax, -264(%rbp)
	.loc 1 327 31
	movq	-584(%rbp), %rax
	movl	60(%rax), %eax
	movl	%eax, -260(%rbp)
	.loc 1 327 68
	movq	-584(%rbp), %rax
	leaq	.LC267(%rip), %rsi
	movq	%rax, %rdi
	call	yymatchString
	.loc 1 327 66
	testl	%eax, %eax
	jne	.L968
	.loc 1 327 94 discriminator 1
	nop
.L563:
	endbr64
	.loc 1 328 21 discriminator 1
	movq	-584(%rbp), %rax
	movl	-264(%rbp), %edx
	movl	%edx, 12(%rax)
	.loc 1 328 47 discriminator 1
	movq	-584(%rbp), %rax
	movl	-260(%rbp), %edx
	movl	%edx, 60(%rax)
	.loc 1 328 70 discriminator 1
	movq	-584(%rbp), %rax
	leaq	.LC268(%rip), %rsi
	movq	%rax, %rdi
	call	yymatchString
	.loc 1 328 68 discriminator 1
	testl	%eax, %eax
	je	.L969
.LBE122:
	.loc 1 330 3
	jmp	.L564
.L968:
.LBB123:
	.loc 1 327 106
	nop
.L564:
.LBE123:
	.loc 1 330 12
	movq	-584(%rbp), %rax
	movl	40(%rax), %ecx
	movq	-584(%rbp), %rax
	movl	36(%rax), %edx
	movq	-584(%rbp), %rax
	leaq	yy_71_Op(%rip), %rsi
	movq	%rax, %rdi
	call	yyDo
	.loc 1 330 57
	jmp	.L353
.L969:
.LBB124:
	.loc 1 328 99
	nop
.L565:
	endbr64
.LBE124:
	.loc 1 331 21
	movq	-584(%rbp), %rax
	movl	-560(%rbp), %edx
	movl	%edx, 12(%rax)
	.loc 1 331 46
	movq	-584(%rbp), %rax
	movl	-556(%rbp), %edx
	movl	%edx, 60(%rax)
.LBB125:
	.loc 1 332 10
	movq	-584(%rbp), %rax
	movl	12(%rax), %eax
	movl	%eax, -256(%rbp)
	.loc 1 332 31
	movq	-584(%rbp), %rax
	movl	60(%rax), %eax
	movl	%eax, -252(%rbp)
	.loc 1 332 68
	movq	-584(%rbp), %rax
	leaq	.LC269(%rip), %rsi
	movq	%rax, %rdi
	call	yymatchString
	.loc 1 332 66
	testl	%eax, %eax
	jne	.L970
	.loc 1 332 93 discriminator 1
	nop
.L567:
	endbr64
	.loc 1 333 21 discriminator 1
	movq	-584(%rbp), %rax
	movl	-256(%rbp), %edx
	movl	%edx, 12(%rax)
	.loc 1 333 47 discriminator 1
	movq	-584(%rbp), %rax
	movl	-252(%rbp), %edx
	movl	%edx, 60(%rax)
	.loc 1 333 70 discriminator 1
	movq	-584(%rbp), %rax
	leaq	.LC270(%rip), %rsi
	movq	%rax, %rdi
	call	yymatchString
	.loc 1 333 68 discriminator 1
	testl	%eax, %eax
	jne	.L971
	.loc 1 333 95 discriminator 1
	nop
.L570:
	endbr64
	.loc 1 334 21 discriminator 1
	movq	-584(%rbp), %rax
	movl	-256(%rbp), %edx
	movl	%edx, 12(%rax)
	.loc 1 334 47 discriminator 1
	movq	-584(%rbp), %rax
	movl	-252(%rbp), %edx
	movl	%edx, 60(%rax)
	.loc 1 334 70 discriminator 1
	movq	-584(%rbp), %rax
	leaq	.LC271(%rip), %rsi
	movq	%rax, %rdi
	call	yymatchString
	.loc 1 334 68 discriminator 1
	testl	%eax, %eax
	jne	.L972
	.loc 1 334 96 discriminator 1
	nop
.L572:
	endbr64
	.loc 1 335 21 discriminator 1
	movq	-584(%rbp), %rax
	movl	-256(%rbp), %edx
	movl	%edx, 12(%rax)
	.loc 1 335 47 discriminator 1
	movq	-584(%rbp), %rax
	movl	-252(%rbp), %edx
	movl	%edx, 60(%rax)
	.loc 1 335 70 discriminator 1
	movq	-584(%rbp), %rax
	leaq	.LC272(%rip), %rsi
	movq	%rax, %rdi
	call	yymatchString
	.loc 1 335 68 discriminator 1
	testl	%eax, %eax
	je	.L973
.LBE125:
	.loc 1 337 3
	jmp	.L568
.L970:
.LBB126:
	.loc 1 332 105
	nop
	jmp	.L568
.L971:
	.loc 1 333 107
	nop
	jmp	.L568
.L972:
	.loc 1 334 108
	nop
.L568:
.LBE126:
	.loc 1 337 12
	movq	-584(%rbp), %rax
	movl	40(%rax), %ecx
	movq	-584(%rbp), %rax
	movl	36(%rax), %edx
	movq	-584(%rbp), %rax
	leaq	yy_72_Op(%rip), %rsi
	movq	%rax, %rdi
	call	yyDo
	.loc 1 337 57
	jmp	.L353
.L973:
.LBB127:
	.loc 1 335 96
	nop
.L573:
	endbr64
.LBE127:
	.loc 1 338 21
	movq	-584(%rbp), %rax
	movl	-560(%rbp), %edx
	movl	%edx, 12(%rax)
	.loc 1 338 46
	movq	-584(%rbp), %rax
	movl	-556(%rbp), %edx
	movl	%edx, 60(%rax)
.LBB128:
	.loc 1 339 10
	movq	-584(%rbp), %rax
	movl	12(%rax), %eax
	movl	%eax, -248(%rbp)
	.loc 1 339 31
	movq	-584(%rbp), %rax
	movl	60(%rax), %eax
	movl	%eax, -244(%rbp)
	.loc 1 339 68
	movq	-584(%rbp), %rax
	leaq	.LC273(%rip), %rsi
	movq	%rax, %rdi
	call	yymatchString
	.loc 1 339 66
	testl	%eax, %eax
	jne	.L974
	.loc 1 339 94 discriminator 1
	nop
.L575:
	endbr64
	.loc 1 340 21 discriminator 1
	movq	-584(%rbp), %rax
	movl	-248(%rbp), %edx
	movl	%edx, 12(%rax)
	.loc 1 340 47 discriminator 1
	movq	-584(%rbp), %rax
	movl	-244(%rbp), %edx
	movl	%edx, 60(%rax)
	.loc 1 340 70 discriminator 1
	movq	-584(%rbp), %rax
	leaq	.LC274(%rip), %rsi
	movq	%rax, %rdi
	call	yymatchString
	.loc 1 340 68 discriminator 1
	testl	%eax, %eax
	je	.L975
.LBE128:
	.loc 1 342 3
	jmp	.L576
.L974:
.LBB129:
	.loc 1 339 106
	nop
.L576:
.LBE129:
	.loc 1 342 12
	movq	-584(%rbp), %rax
	movl	40(%rax), %ecx
	movq	-584(%rbp), %rax
	movl	36(%rax), %edx
	movq	-584(%rbp), %rax
	leaq	yy_73_Op(%rip), %rsi
	movq	%rax, %rdi
	call	yyDo
	.loc 1 342 57
	jmp	.L353
.L975:
.LBB130:
	.loc 1 340 99
	nop
.L577:
	endbr64
.LBE130:
	.loc 1 343 21
	movq	-584(%rbp), %rax
	movl	-560(%rbp), %edx
	movl	%edx, 12(%rax)
	.loc 1 343 46
	movq	-584(%rbp), %rax
	movl	-556(%rbp), %edx
	movl	%edx, 60(%rax)
.LBB131:
	.loc 1 344 10
	movq	-584(%rbp), %rax
	movl	12(%rax), %eax
	movl	%eax, -240(%rbp)
	.loc 1 344 31
	movq	-584(%rbp), %rax
	movl	60(%rax), %eax
	movl	%eax, -236(%rbp)
	.loc 1 344 68
	movq	-584(%rbp), %rax
	leaq	.LC275(%rip), %rsi
	movq	%rax, %rdi
	call	yymatchString
	.loc 1 344 66
	testl	%eax, %eax
	jne	.L976
	.loc 1 344 93 discriminator 1
	nop
.L579:
	endbr64
	.loc 1 345 21 discriminator 1
	movq	-584(%rbp), %rax
	movl	-240(%rbp), %edx
	movl	%edx, 12(%rax)
	.loc 1 345 47 discriminator 1
	movq	-584(%rbp), %rax
	movl	-236(%rbp), %edx
	movl	%edx, 60(%rax)
	.loc 1 345 70 discriminator 1
	movq	-584(%rbp), %rax
	leaq	.LC276(%rip), %rsi
	movq	%rax, %rdi
	call	yymatchString
	.loc 1 345 68 discriminator 1
	testl	%eax, %eax
	je	.L977
.LBE131:
	.loc 1 347 3
	jmp	.L580
.L976:
.LBB132:
	.loc 1 344 105
	nop
.L580:
.LBE132:
	.loc 1 347 12
	movq	-584(%rbp), %rax
	movl	40(%rax), %ecx
	movq	-584(%rbp), %rax
	movl	36(%rax), %edx
	movq	-584(%rbp), %rax
	leaq	yy_74_Op(%rip), %rsi
	movq	%rax, %rdi
	call	yyDo
	.loc 1 347 57
	jmp	.L353
.L977:
.LBB133:
	.loc 1 345 97
	nop
.L581:
	endbr64
.LBE133:
	.loc 1 348 21
	movq	-584(%rbp), %rax
	movl	-560(%rbp), %edx
	movl	%edx, 12(%rax)
	.loc 1 348 46
	movq	-584(%rbp), %rax
	movl	-556(%rbp), %edx
	movl	%edx, 60(%rax)
	.loc 1 348 68
	movq	-584(%rbp), %rax
	movl	$62, %esi
	movq	%rax, %rdi
	call	yymatchChar
	.loc 1 348 66
	testl	%eax, %eax
	je	.L978
	.loc 1 348 102 discriminator 2
	movq	-584(%rbp), %rax
	movl	40(%rax), %ecx
	movq	-584(%rbp), %rax
	movl	36(%rax), %edx
	movq	-584(%rbp), %rax
	leaq	yy_75_Op(%rip), %rsi
	movq	%rax, %rdi
	call	yyDo
	.loc 1 348 147 discriminator 2
	jmp	.L353
.L978:
	.loc 1 348 90
	nop
.L583:
	endbr64
	.loc 1 349 21
	movq	-584(%rbp), %rax
	movl	-560(%rbp), %edx
	movl	%edx, 12(%rax)
	.loc 1 349 46
	movq	-584(%rbp), %rax
	movl	-556(%rbp), %edx
	movl	%edx, 60(%rax)
	.loc 1 349 68
	movq	-584(%rbp), %rax
	leaq	.LC277(%rip), %rsi
	movq	%rax, %rdi
	call	yymatchString
	.loc 1 349 66
	testl	%eax, %eax
	je	.L979
	.loc 1 349 105 discriminator 2
	movq	-584(%rbp), %rax
	movl	40(%rax), %ecx
	movq	-584(%rbp), %rax
	movl	36(%rax), %edx
	movq	-584(%rbp), %rax
	leaq	yy_76_Op(%rip), %rsi
	movq	%rax, %rdi
	call	yyDo
	.loc 1 349 150 discriminator 2
	jmp	.L353
.L979:
	.loc 1 349 93
	nop
.L585:
	endbr64
	.loc 1 350 21
	movq	-584(%rbp), %rax
	movl	-560(%rbp), %edx
	movl	%edx, 12(%rax)
	.loc 1 350 46
	movq	-584(%rbp), %rax
	movl	-556(%rbp), %edx
	movl	%edx, 60(%rax)
.LBB134:
	.loc 1 351 10
	movq	-584(%rbp), %rax
	movl	12(%rax), %eax
	movl	%eax, -232(%rbp)
	.loc 1 351 31
	movq	-584(%rbp), %rax
	movl	60(%rax), %eax
	movl	%eax, -228(%rbp)
	.loc 1 351 68
	movq	-584(%rbp), %rax
	leaq	.LC278(%rip), %rsi
	movq	%rax, %rdi
	call	yymatchString
	.loc 1 351 66
	testl	%eax, %eax
	jne	.L980
	.loc 1 351 94 discriminator 1
	nop
.L587:
	endbr64
	.loc 1 352 21 discriminator 1
	movq	-584(%rbp), %rax
	movl	-232(%rbp), %edx
	movl	%edx, 12(%rax)
	.loc 1 352 47 discriminator 1
	movq	-584(%rbp), %rax
	movl	-228(%rbp), %edx
	movl	%edx, 60(%rax)
	.loc 1 352 70 discriminator 1
	movq	-584(%rbp), %rax
	leaq	.LC279(%rip), %rsi
	movq	%rax, %rdi
	call	yymatchString
	.loc 1 352 68 discriminator 1
	testl	%eax, %eax
	je	.L981
.LBE134:
	.loc 1 354 3
	jmp	.L588
.L980:
.LBB135:
	.loc 1 351 106
	nop
.L588:
.LBE135:
	.loc 1 354 12
	movq	-584(%rbp), %rax
	movl	40(%rax), %ecx
	movq	-584(%rbp), %rax
	movl	36(%rax), %edx
	movq	-584(%rbp), %rax
	leaq	yy_77_Op(%rip), %rsi
	movq	%rax, %rdi
	call	yyDo
	.loc 1 354 57
	jmp	.L353
.L981:
.LBB136:
	.loc 1 352 98
	nop
.L589:
	endbr64
.LBE136:
	.loc 1 355 21
	movq	-584(%rbp), %rax
	movl	-560(%rbp), %edx
	movl	%edx, 12(%rax)
	.loc 1 355 46
	movq	-584(%rbp), %rax
	movl	-556(%rbp), %edx
	movl	%edx, 60(%rax)
.LBB137:
	.loc 1 356 10
	movq	-584(%rbp), %rax
	movl	12(%rax), %eax
	movl	%eax, -224(%rbp)
	.loc 1 356 31
	movq	-584(%rbp), %rax
	movl	60(%rax), %eax
	movl	%eax, -220(%rbp)
	.loc 1 356 68
	movq	-584(%rbp), %rax
	leaq	.LC280(%rip), %rsi
	movq	%rax, %rdi
	call	yymatchString
	.loc 1 356 66
	testl	%eax, %eax
	jne	.L982
	.loc 1 356 95 discriminator 1
	nop
.L591:
	endbr64
	.loc 1 357 21 discriminator 1
	movq	-584(%rbp), %rax
	movl	-224(%rbp), %edx
	movl	%edx, 12(%rax)
	.loc 1 357 47 discriminator 1
	movq	-584(%rbp), %rax
	movl	-220(%rbp), %edx
	movl	%edx, 60(%rax)
	.loc 1 357 70 discriminator 1
	movq	-584(%rbp), %rax
	leaq	.LC281(%rip), %rsi
	movq	%rax, %rdi
	call	yymatchString
	.loc 1 357 68 discriminator 1
	testl	%eax, %eax
	je	.L983
.LBE137:
	.loc 1 359 3
	jmp	.L592
.L982:
.LBB138:
	.loc 1 356 107
	nop
.L592:
.LBE138:
	.loc 1 359 12
	movq	-584(%rbp), %rax
	movl	40(%rax), %ecx
	movq	-584(%rbp), %rax
	movl	36(%rax), %edx
	movq	-584(%rbp), %rax
	leaq	yy_78_Op(%rip), %rsi
	movq	%rax, %rdi
	call	yyDo
	.loc 1 359 57
	jmp	.L353
.L983:
.LBB139:
	.loc 1 357 101
	nop
.L593:
	endbr64
.LBE139:
	.loc 1 360 21
	movq	-584(%rbp), %rax
	movl	-560(%rbp), %edx
	movl	%edx, 12(%rax)
	.loc 1 360 46
	movq	-584(%rbp), %rax
	movl	-556(%rbp), %edx
	movl	%edx, 60(%rax)
.LBB140:
	.loc 1 361 10
	movq	-584(%rbp), %rax
	movl	12(%rax), %eax
	movl	%eax, -216(%rbp)
	.loc 1 361 31
	movq	-584(%rbp), %rax
	movl	60(%rax), %eax
	movl	%eax, -212(%rbp)
	.loc 1 361 68
	movq	-584(%rbp), %rax
	leaq	.LC282(%rip), %rsi
	movq	%rax, %rdi
	call	yymatchString
	.loc 1 361 66
	testl	%eax, %eax
	jne	.L984
	.loc 1 361 94 discriminator 1
	nop
.L595:
	endbr64
	.loc 1 362 21 discriminator 1
	movq	-584(%rbp), %rax
	movl	-216(%rbp), %edx
	movl	%edx, 12(%rax)
	.loc 1 362 47 discriminator 1
	movq	-584(%rbp), %rax
	movl	-212(%rbp), %edx
	movl	%edx, 60(%rax)
	.loc 1 362 70 discriminator 1
	movq	-584(%rbp), %rax
	leaq	.LC283(%rip), %rsi
	movq	%rax, %rdi
	call	yymatchString
	.loc 1 362 68 discriminator 1
	testl	%eax, %eax
	je	.L985
.LBE140:
	.loc 1 364 3
	jmp	.L596
.L984:
.LBB141:
	.loc 1 361 106
	nop
.L596:
.LBE141:
	.loc 1 364 12
	movq	-584(%rbp), %rax
	movl	40(%rax), %ecx
	movq	-584(%rbp), %rax
	movl	36(%rax), %edx
	movq	-584(%rbp), %rax
	leaq	yy_79_Op(%rip), %rsi
	movq	%rax, %rdi
	call	yyDo
	.loc 1 364 57
	jmp	.L353
.L985:
.LBB142:
	.loc 1 362 99
	nop
.L597:
	endbr64
.LBE142:
	.loc 1 365 21
	movq	-584(%rbp), %rax
	movl	-560(%rbp), %edx
	movl	%edx, 12(%rax)
	.loc 1 365 46
	movq	-584(%rbp), %rax
	movl	-556(%rbp), %edx
	movl	%edx, 60(%rax)
.LBB143:
	.loc 1 366 10
	movq	-584(%rbp), %rax
	movl	12(%rax), %eax
	movl	%eax, -208(%rbp)
	.loc 1 366 31
	movq	-584(%rbp), %rax
	movl	60(%rax), %eax
	movl	%eax, -204(%rbp)
	.loc 1 366 68
	movq	-584(%rbp), %rax
	leaq	.LC284(%rip), %rsi
	movq	%rax, %rdi
	call	yymatchString
	.loc 1 366 66
	testl	%eax, %eax
	jne	.L986
	.loc 1 366 95 discriminator 1
	nop
.L599:
	endbr64
	.loc 1 367 21 discriminator 1
	movq	-584(%rbp), %rax
	movl	-208(%rbp), %edx
	movl	%edx, 12(%rax)
	.loc 1 367 47 discriminator 1
	movq	-584(%rbp), %rax
	movl	-204(%rbp), %edx
	movl	%edx, 60(%rax)
	.loc 1 367 70 discriminator 1
	movq	-584(%rbp), %rax
	leaq	.LC285(%rip), %rsi
	movq	%rax, %rdi
	call	yymatchString
	.loc 1 367 68 discriminator 1
	testl	%eax, %eax
	je	.L987
.LBE143:
	.loc 1 369 3
	jmp	.L600
.L986:
.LBB144:
	.loc 1 366 107
	nop
.L600:
.LBE144:
	.loc 1 369 12
	movq	-584(%rbp), %rax
	movl	40(%rax), %ecx
	movq	-584(%rbp), %rax
	movl	36(%rax), %edx
	movq	-584(%rbp), %rax
	leaq	yy_80_Op(%rip), %rsi
	movq	%rax, %rdi
	call	yyDo
	.loc 1 369 57
	jmp	.L353
.L987:
.LBB145:
	.loc 1 367 101
	nop
.L601:
	endbr64
.LBE145:
	.loc 1 370 21
	movq	-584(%rbp), %rax
	movl	-560(%rbp), %edx
	movl	%edx, 12(%rax)
	.loc 1 370 46
	movq	-584(%rbp), %rax
	movl	-556(%rbp), %edx
	movl	%edx, 60(%rax)
.LBB146:
	.loc 1 371 10
	movq	-584(%rbp), %rax
	movl	12(%rax), %eax
	movl	%eax, -200(%rbp)
	.loc 1 371 31
	movq	-584(%rbp), %rax
	movl	60(%rax), %eax
	movl	%eax, -196(%rbp)
	.loc 1 371 68
	movq	-584(%rbp), %rax
	leaq	.LC286(%rip), %rsi
	movq	%rax, %rdi
	call	yymatchString
	.loc 1 371 66
	testl	%eax, %eax
	jne	.L988
	.loc 1 371 94 discriminator 1
	nop
.L603:
	endbr64
	.loc 1 372 21 discriminator 1
	movq	-584(%rbp), %rax
	movl	-200(%rbp), %edx
	movl	%edx, 12(%rax)
	.loc 1 372 47 discriminator 1
	movq	-584(%rbp), %rax
	movl	-196(%rbp), %edx
	movl	%edx, 60(%rax)
	.loc 1 372 70 discriminator 1
	movq	-584(%rbp), %rax
	leaq	.LC287(%rip), %rsi
	movq	%rax, %rdi
	call	yymatchString
	.loc 1 372 68 discriminator 1
	testl	%eax, %eax
	je	.L989
.LBE146:
	.loc 1 374 3
	jmp	.L604
.L988:
.LBB147:
	.loc 1 371 106
	nop
.L604:
.LBE147:
	.loc 1 374 12
	movq	-584(%rbp), %rax
	movl	40(%rax), %ecx
	movq	-584(%rbp), %rax
	movl	36(%rax), %edx
	movq	-584(%rbp), %rax
	leaq	yy_81_Op(%rip), %rsi
	movq	%rax, %rdi
	call	yyDo
	.loc 1 374 57
	jmp	.L353
.L989:
.LBB148:
	.loc 1 372 99
	nop
.L605:
	endbr64
.LBE148:
	.loc 1 375 21
	movq	-584(%rbp), %rax
	movl	-560(%rbp), %edx
	movl	%edx, 12(%rax)
	.loc 1 375 46
	movq	-584(%rbp), %rax
	movl	-556(%rbp), %edx
	movl	%edx, 60(%rax)
.LBB149:
	.loc 1 376 10
	movq	-584(%rbp), %rax
	movl	12(%rax), %eax
	movl	%eax, -192(%rbp)
	.loc 1 376 31
	movq	-584(%rbp), %rax
	movl	60(%rax), %eax
	movl	%eax, -188(%rbp)
	.loc 1 376 68
	movq	-584(%rbp), %rax
	leaq	.LC288(%rip), %rsi
	movq	%rax, %rdi
	call	yymatchString
	.loc 1 376 66
	testl	%eax, %eax
	jne	.L990
	.loc 1 376 93 discriminator 1
	nop
.L607:
	endbr64
	.loc 1 377 21 discriminator 1
	movq	-584(%rbp), %rax
	movl	-192(%rbp), %edx
	movl	%edx, 12(%rax)
	.loc 1 377 47 discriminator 1
	movq	-584(%rbp), %rax
	movl	-188(%rbp), %edx
	movl	%edx, 60(%rax)
	.loc 1 377 70 discriminator 1
	movq	-584(%rbp), %rax
	leaq	.LC289(%rip), %rsi
	movq	%rax, %rdi
	call	yymatchString
	.loc 1 377 68 discriminator 1
	testl	%eax, %eax
	je	.L991
.LBE149:
	.loc 1 379 3
	jmp	.L608
.L990:
.LBB150:
	.loc 1 376 105
	nop
.L608:
.LBE150:
	.loc 1 379 12
	movq	-584(%rbp), %rax
	movl	40(%rax), %ecx
	movq	-584(%rbp), %rax
	movl	36(%rax), %edx
	movq	-584(%rbp), %rax
	leaq	yy_82_Op(%rip), %rsi
	movq	%rax, %rdi
	call	yyDo
	.loc 1 379 57
	jmp	.L353
.L991:
.LBB151:
	.loc 1 377 98
	nop
.L609:
	endbr64
.LBE151:
	.loc 1 380 21
	movq	-584(%rbp), %rax
	movl	-560(%rbp), %edx
	movl	%edx, 12(%rax)
	.loc 1 380 46
	movq	-584(%rbp), %rax
	movl	-556(%rbp), %edx
	movl	%edx, 60(%rax)
.LBB152:
	.loc 1 381 10
	movq	-584(%rbp), %rax
	movl	12(%rax), %eax
	movl	%eax, -184(%rbp)
	.loc 1 381 31
	movq	-584(%rbp), %rax
	movl	60(%rax), %eax
	movl	%eax, -180(%rbp)
	.loc 1 381 68
	movq	-584(%rbp), %rax
	leaq	.LC290(%rip), %rsi
	movq	%rax, %rdi
	call	yymatchString
	.loc 1 381 66
	testl	%eax, %eax
	jne	.L992
	.loc 1 381 93 discriminator 1
	nop
.L611:
	endbr64
	.loc 1 382 21 discriminator 1
	movq	-584(%rbp), %rax
	movl	-184(%rbp), %edx
	movl	%edx, 12(%rax)
	.loc 1 382 47 discriminator 1
	movq	-584(%rbp), %rax
	movl	-180(%rbp), %edx
	movl	%edx, 60(%rax)
	.loc 1 382 70 discriminator 1
	movq	-584(%rbp), %rax
	leaq	.LC291(%rip), %rsi
	movq	%rax, %rdi
	call	yymatchString
	.loc 1 382 68 discriminator 1
	testl	%eax, %eax
	je	.L993
.LBE152:
	.loc 1 384 3
	jmp	.L612
.L992:
.LBB153:
	.loc 1 381 105
	nop
.L612:
.LBE153:
	.loc 1 384 12
	movq	-584(%rbp), %rax
	movl	40(%rax), %ecx
	movq	-584(%rbp), %rax
	movl	36(%rax), %edx
	movq	-584(%rbp), %rax
	leaq	yy_83_Op(%rip), %rsi
	movq	%rax, %rdi
	call	yyDo
	.loc 1 384 57
	jmp	.L353
.L993:
.LBB154:
	.loc 1 382 97
	nop
.L613:
	endbr64
.LBE154:
	.loc 1 385 21
	movq	-584(%rbp), %rax
	movl	-560(%rbp), %edx
	movl	%edx, 12(%rax)
	.loc 1 385 46
	movq	-584(%rbp), %rax
	movl	-556(%rbp), %edx
	movl	%edx, 60(%rax)
.LBB155:
	.loc 1 386 10
	movq	-584(%rbp), %rax
	movl	12(%rax), %eax
	movl	%eax, -176(%rbp)
	.loc 1 386 31
	movq	-584(%rbp), %rax
	movl	60(%rax), %eax
	movl	%eax, -172(%rbp)
	.loc 1 386 68
	movq	-584(%rbp), %rax
	leaq	.LC292(%rip), %rsi
	movq	%rax, %rdi
	call	yymatchString
	.loc 1 386 66
	testl	%eax, %eax
	jne	.L994
	.loc 1 386 93 discriminator 1
	nop
.L615:
	endbr64
	.loc 1 387 21 discriminator 1
	movq	-584(%rbp), %rax
	movl	-176(%rbp), %edx
	movl	%edx, 12(%rax)
	.loc 1 387 47 discriminator 1
	movq	-584(%rbp), %rax
	movl	-172(%rbp), %edx
	movl	%edx, 60(%rax)
	.loc 1 387 70 discriminator 1
	movq	-584(%rbp), %rax
	leaq	.LC293(%rip), %rsi
	movq	%rax, %rdi
	call	yymatchString
	.loc 1 387 68 discriminator 1
	testl	%eax, %eax
	je	.L995
.LBE155:
	.loc 1 389 3
	jmp	.L616
.L994:
.LBB156:
	.loc 1 386 105
	nop
.L616:
.LBE156:
	.loc 1 389 12
	movq	-584(%rbp), %rax
	movl	40(%rax), %ecx
	movq	-584(%rbp), %rax
	movl	36(%rax), %edx
	movq	-584(%rbp), %rax
	leaq	yy_84_Op(%rip), %rsi
	movq	%rax, %rdi
	call	yyDo
	.loc 1 389 57
	jmp	.L353
.L995:
.LBB157:
	.loc 1 387 99
	nop
.L617:
	endbr64
.LBE157:
	.loc 1 390 21
	movq	-584(%rbp), %rax
	movl	-560(%rbp), %edx
	movl	%edx, 12(%rax)
	.loc 1 390 46
	movq	-584(%rbp), %rax
	movl	-556(%rbp), %edx
	movl	%edx, 60(%rax)
.LBB158:
	.loc 1 391 10
	movq	-584(%rbp), %rax
	movl	12(%rax), %eax
	movl	%eax, -168(%rbp)
	.loc 1 391 31
	movq	-584(%rbp), %rax
	movl	60(%rax), %eax
	movl	%eax, -164(%rbp)
	.loc 1 391 68
	movq	-584(%rbp), %rax
	leaq	.LC294(%rip), %rsi
	movq	%rax, %rdi
	call	yymatchString
	.loc 1 391 66
	testl	%eax, %eax
	jne	.L996
	.loc 1 391 95 discriminator 1
	nop
.L619:
	endbr64
	.loc 1 392 21 discriminator 1
	movq	-584(%rbp), %rax
	movl	-168(%rbp), %edx
