	.file	"util.c"
	.text
.Ltext0:
	.globl	mk_empty
	.type	mk_empty, @function
mk_empty:
.LFB6:
	.file 1 "util.c"
	.loc 1 9 1
	.cfi_startproc
	endbr64
	pushq	%rbp
	.cfi_def_cfa_offset 16
	.cfi_offset 6, -16
	movq	%rsp, %rbp
	.cfi_def_cfa_register 6
	subq	$32, %rsp
1:	call	*mcount@GOTPCREL(%rip)
	movl	%edi, -20(%rbp)
	.loc 1 10 19
	movl	$24, %edi
	call	malloc@PLT
	movq	%rax, -8(%rbp)
	.loc 1 11 10
	movq	-8(%rbp), %rax
	movl	-20(%rbp), %edx
	movl	%edx, (%rax)
	.loc 1 12 9
	movq	-8(%rbp), %rax
	.loc 1 13 1
	leave
	.cfi_def_cfa 7, 8
	ret
	.cfi_endproc
.LFE6:
	.size	mk_empty, .-mk_empty
	.globl	mk_node
	.type	mk_node, @function
mk_node:
.LFB7:
	.loc 1 16 1
	.cfi_startproc
	endbr64
	pushq	%rbp
	.cfi_def_cfa_offset 16
	.cfi_offset 6, -16
	movq	%rsp, %rbp
	.cfi_def_cfa_register 6
	subq	$32, %rsp
1:	call	*mcount@GOTPCREL(%rip)
	movl	%edi, -20(%rbp)
	movq	%rsi, -32(%rbp)
	.loc 1 17 19
	movl	-20(%rbp), %eax
	movl	%eax, %edi
	call	mk_empty
	movq	%rax, -8(%rbp)
	.loc 1 18 12
	movq	-32(%rbp), %rax
	movq	%rax, %rdi
	call	strdup@PLT
	movq	%rax, %rdx
	.loc 1 18 10
	movq	-8(%rbp), %rax
	movq	%rdx, 8(%rax)
	.loc 1 19 9
	movq	-8(%rbp), %rax
	.loc 1 20 1
	leave
	.cfi_def_cfa 7, 8
	ret
	.cfi_endproc
.LFE7:
	.size	mk_node, .-mk_node
	.globl	mk_str
	.type	mk_str, @function
mk_str:
.LFB8:
	.loc 1 23 1
	.cfi_startproc
	endbr64
	pushq	%rbp
	.cfi_def_cfa_offset 16
	.cfi_offset 6, -16
	movq	%rsp, %rbp
	.cfi_def_cfa_register 6
	subq	$32, %rsp
1:	call	*mcount@GOTPCREL(%rip)
	movq	%rdi, -24(%rbp)
	.loc 1 24 19
	movl	$0, %edi
	call	mk_empty
	movq	%rax, -8(%rbp)
	.loc 1 25 12
	movq	-24(%rbp), %rax
	movq	%rax, %rdi
	call	strdup@PLT
	movq	%rax, %rdx
	.loc 1 25 10
	movq	-8(%rbp), %rax
	movq	%rdx, 8(%rax)
	.loc 1 26 9
	movq	-8(%rbp), %rax
	.loc 1 27 1
	leave
	.cfi_def_cfa 7, 8
	ret
	.cfi_endproc
.LFE8:
	.size	mk_str, .-mk_str
	.globl	free_node
	.type	free_node, @function
free_node:
.LFB9:
	.loc 1 30 1
	.cfi_startproc
	endbr64
	pushq	%rbp
	.cfi_def_cfa_offset 16
	.cfi_offset 6, -16
	movq	%rsp, %rbp
	.cfi_def_cfa_register 6
	subq	$16, %rsp
1:	call	*mcount@GOTPCREL(%rip)
	movq	%rdi, -8(%rbp)
	.loc 1 31 7
	movq	-8(%rbp), %rax
	movl	(%rax), %eax
	.loc 1 31 5
	cmpl	$6, %eax
	jne	.L8
	.loc 1 31 32 discriminator 1
	movq	-8(%rbp), %rax
	movq	16(%rax), %rdx
	.loc 1 31 44 discriminator 1
	movq	-8(%rbp), %rax
	movq	8(%rax), %rax
	.loc 1 31 28 discriminator 1
	cmpq	%rax, %rdx
	je	.L8
	.loc 1 32 9
	movq	-8(%rbp), %rax
	movq	16(%rax), %rax
	.loc 1 32 3
	movq	%rax, %rdi
	call	free@PLT
.L8:
	.loc 1 34 8
	movq	-8(%rbp), %rax
	movq	8(%rax), %rax
	.loc 1 34 2
	movq	%rax, %rdi
	call	free@PLT
	.loc 1 35 2
	movq	-8(%rbp), %rax
	movq	%rax, %rdi
	call	free@PLT
	.loc 1 36 1
	nop
	leave
	.cfi_def_cfa 7, 8
	ret
	.cfi_endproc
.LFE9:
	.size	free_node, .-free_node
	.section	.rodata
.LC0:
	.string	"%s%s"
	.text
	.globl	mk_concat
	.type	mk_concat, @function
mk_concat:
.LFB10:
	.loc 1 39 1
	.cfi_startproc
	endbr64
	pushq	%rbp
	.cfi_def_cfa_offset 16
	.cfi_offset 6, -16
	movq	%rsp, %rbp
	.cfi_def_cfa_register 6
	subq	$32, %rsp
1:	call	*mcount@GOTPCREL(%rip)
	movq	%rdi, -24(%rbp)
	movq	%rsi, -32(%rbp)
	.loc 1 40 19
	movl	$7, %edi
	call	mk_empty
	movq	%rax, -8(%rbp)
	.loc 1 41 2
	movq	-32(%rbp), %rax
	movq	8(%rax), %rdx
	movq	-24(%rbp), %rax
	movq	8(%rax), %rax
	movq	-8(%rbp), %rcx
	leaq	8(%rcx), %rdi
	movq	%rdx, %rcx
	movq	%rax, %rdx
	leaq	.LC0(%rip), %rsi
	movl	$0, %eax
	call	asprintf@PLT
	.loc 1 42 2
	movq	-24(%rbp), %rax
	movq	%rax, %rdi
	call	free_node
	.loc 1 43 2
	movq	-32(%rbp), %rax
	movq	%rax, %rdi
	call	free_node
	.loc 1 44 9
	movq	-8(%rbp), %rax
	.loc 1 45 1
	leave
	.cfi_def_cfa 7, 8
	ret
	.cfi_endproc
.LFE10:
	.size	mk_concat, .-mk_concat
	.section	.rodata
.LC1:
	.string	"<mrow>%s</mrow>"
	.align 8
.LC2:
	.string	"<mrow><mo>%s</mo>%s<mo>%s</mo></mrow>"
	.text
	.globl	mk_group
	.type	mk_group, @function
mk_group:
.LFB11:
	.loc 1 48 1
	.cfi_startproc
	endbr64
	pushq	%rbp
	.cfi_def_cfa_offset 16
	.cfi_offset 6, -16
	movq	%rsp, %rbp
	.cfi_def_cfa_register 6
	subq	$48, %rsp
1:	call	*mcount@GOTPCREL(%rip)
	movq	%rdi, -24(%rbp)
	movq	%rsi, -32(%rbp)
	movq	%rdx, -40(%rbp)
	.loc 1 49 19
	movl	$6, %edi
	call	mk_empty
	movq	%rax, -8(%rbp)
	.loc 1 50 2
	movq	-32(%rbp), %rax
	movq	8(%rax), %rax
	movq	-8(%rbp), %rdx
	leaq	16(%rdx), %rcx
	movq	%rax, %rdx
	leaq	.LC1(%rip), %rsi
	movq	%rcx, %rdi
	movl	$0, %eax
	call	asprintf@PLT
	.loc 1 51 14
	movq	-24(%rbp), %rax
	movq	8(%rax), %rax
	.loc 1 51 6
	movzbl	(%rax), %eax
	movzbl	%al, %eax
	.loc 1 51 5
	testl	%eax, %eax
	je	.L12
	.loc 1 52 3
	movq	-40(%rbp), %rax
	movq	8(%rax), %rsi
	movq	-32(%rbp), %rax
	movq	8(%rax), %rdx
	movq	-24(%rbp), %rax
	movq	8(%rax), %rax
	movq	-8(%rbp), %rcx
	leaq	8(%rcx), %rdi
	movq	%rsi, %r8
	movq	%rdx, %rcx
	movq	%rax, %rdx
	leaq	.LC2(%rip), %rsi
	movl	$0, %eax
	call	asprintf@PLT
	jmp	.L13
.L12:
	.loc 1 54 21
	movq	-8(%rbp), %rax
	movq	16(%rax), %rax
	.loc 1 54 13
	movq	%rax, %rdi
	call	strdup@PLT
	movq	%rax, %rdx
	.loc 1 54 11
	movq	-8(%rbp), %rax
	movq	%rdx, 8(%rax)
.L13:
	.loc 1 55 2
	movq	-24(%rbp), %rax
	movq	%rax, %rdi
	call	free_node
	.loc 1 56 2
	movq	-32(%rbp), %rax
	movq	%rax, %rdi
	call	free_node
	.loc 1 57 2
	movq	-40(%rbp), %rax
	movq	%rax, %rdi
	call	free_node
	.loc 1 58 9
	movq	-8(%rbp), %rax
	.loc 1 59 1
	leave
	.cfi_def_cfa 7, 8
	ret
	.cfi_endproc
.LFE11:
	.size	mk_group, .-mk_group
	.section	.rodata
	.align 8
.LC3:
	.string	"<merror>Error on input \"%s\".</merror>"
	.text
	.globl	merror
	.type	merror, @function
merror:
.LFB12:
	.loc 1 65 1
	.cfi_startproc
	endbr64
	pushq	%rbp
	.cfi_def_cfa_offset 16
	.cfi_offset 6, -16
	movq	%rsp, %rbp
	.cfi_def_cfa_register 6
	subq	$32, %rsp
1:	call	*mcount@GOTPCREL(%rip)
	movq	%rdi, -24(%rbp)
	.loc 1 65 1
	movq	%fs:40, %rax
	movq	%rax, -8(%rbp)
	xorl	%eax, %eax
	.loc 1 67 2
	movq	-24(%rbp), %rdx
	leaq	-16(%rbp), %rax
	leaq	.LC3(%rip), %rsi
	movq	%rax, %rdi
	movl	$0, %eax
	call	asprintf@PLT
	.loc 1 68 9
	movq	-16(%rbp), %rax
	.loc 1 69 1
	movq	-8(%rbp), %rcx
	xorq	%fs:40, %rcx
	je	.L17
	call	__stack_chk_fail@PLT
.L17:
	leave
	.cfi_def_cfa 7, 8
	ret
	.cfi_endproc
.LFE12:
	.size	merror, .-merror
	.globl	inner
	.type	inner, @function
inner:
.LFB13:
	.loc 1 72 1
	.cfi_startproc
	endbr64
	pushq	%rbp
	.cfi_def_cfa_offset 16
	.cfi_offset 6, -16
	movq	%rsp, %rbp
	.cfi_def_cfa_register 6
	subq	$16, %rsp
1:	call	*mcount@GOTPCREL(%rip)
	movq	%rdi, -8(%rbp)
	.loc 1 73 7
	movq	-8(%rbp), %rax
	movl	(%rax), %eax
	.loc 1 73 5
	cmpl	$6, %eax
	jne	.L21
	.loc 1 74 8
	movq	-8(%rbp), %rax
	movq	8(%rax), %rdx
	.loc 1 74 19
	movq	-8(%rbp), %rax
	movq	16(%rax), %rax
	.loc 1 74 6
	cmpq	%rax, %rdx
	je	.L20
	.loc 1 75 10
	movq	-8(%rbp), %rax
	movq	8(%rax), %rax
	.loc 1 75 4
	movq	%rax, %rdi
	call	free@PLT
.L20:
	.loc 1 77 14
	movq	-8(%rbp), %rax
	movq	16(%rax), %rdx
	.loc 1 77 11
	movq	-8(%rbp), %rax
	movq	%rdx, 8(%rax)
.L21:
	.loc 1 79 1
	nop
	leave
	.cfi_def_cfa 7, 8
	ret
	.cfi_endproc
.LFE13:
	.size	inner, .-inner
	.section	.rodata
.LC4:
	.string	"<mn>%s</mn>"
	.text
	.globl	mk_number
	.type	mk_number, @function
mk_number:
.LFB14:
	.loc 1 91 1
	.cfi_startproc
	endbr64
	pushq	%rbp
	.cfi_def_cfa_offset 16
	.cfi_offset 6, -16
	movq	%rsp, %rbp
	.cfi_def_cfa_register 6
	subq	$32, %rsp
1:	call	*mcount@GOTPCREL(%rip)
	movq	%rdi, -24(%rbp)
	.loc 1 91 1
	movl	$5, %edi
	call	mk_empty
	movq	%rax, -8(%rbp)
	movq	-8(%rbp), %rax
	leaq	8(%rax), %rcx
	movq	-24(%rbp), %rax
	movq	%rax, %rdx
	leaq	.LC4(%rip), %rsi
	movq	%rcx, %rdi
	movl	$0, %eax
	call	asprintf@PLT
	movq	-8(%rbp), %rax
	leave
	.cfi_def_cfa 7, 8
	ret
	.cfi_endproc
.LFE14:
	.size	mk_number, .-mk_number
	.section	.rodata
.LC5:
	.string	"<mo>%s</mo>"
	.text
	.globl	mk_op
	.type	mk_op, @function
mk_op:
.LFB15:
	.loc 1 92 1
	.cfi_startproc
	endbr64
	pushq	%rbp
	.cfi_def_cfa_offset 16
	.cfi_offset 6, -16
	movq	%rsp, %rbp
	.cfi_def_cfa_register 6
	subq	$32, %rsp
1:	call	*mcount@GOTPCREL(%rip)
	movq	%rdi, -24(%rbp)
	.loc 1 92 1
	movl	$5, %edi
	call	mk_empty
	movq	%rax, -8(%rbp)
	movq	-8(%rbp), %rax
	leaq	8(%rax), %rcx
	movq	-24(%rbp), %rax
	movq	%rax, %rdx
	leaq	.LC5(%rip), %rsi
	movq	%rcx, %rdi
	movl	$0, %eax
	call	asprintf@PLT
	movq	-8(%rbp), %rax
	leave
	.cfi_def_cfa 7, 8
	ret
	.cfi_endproc
.LFE15:
	.size	mk_op, .-mk_op
	.section	.rodata
.LC6:
	.string	"<mi>%s</mi>"
	.text
	.globl	mk_id
	.type	mk_id, @function
mk_id:
.LFB16:
	.loc 1 93 1
	.cfi_startproc
	endbr64
	pushq	%rbp
	.cfi_def_cfa_offset 16
	.cfi_offset 6, -16
	movq	%rsp, %rbp
	.cfi_def_cfa_register 6
	subq	$32, %rsp
1:	call	*mcount@GOTPCREL(%rip)
	movq	%rdi, -24(%rbp)
	.loc 1 93 1
	movl	$5, %edi
	call	mk_empty
	movq	%rax, -8(%rbp)
	movq	-8(%rbp), %rax
	leaq	8(%rax), %rcx
	movq	-24(%rbp), %rax
	movq	%rax, %rdx
	leaq	.LC6(%rip), %rsi
	movq	%rcx, %rdi
	movl	$0, %eax
	call	asprintf@PLT
	movq	-8(%rbp), %rax
	leave
	.cfi_def_cfa 7, 8
	ret
	.cfi_endproc
.LFE16:
	.size	mk_id, .-mk_id
	.globl	mk_underover
	.type	mk_underover, @function
mk_underover:
.LFB17:
	.loc 1 94 1
	.cfi_startproc
	endbr64
	pushq	%rbp
	.cfi_def_cfa_offset 16
	.cfi_offset 6, -16
	movq	%rsp, %rbp
	.cfi_def_cfa_register 6
	subq	$32, %rsp
1:	call	*mcount@GOTPCREL(%rip)
	movq	%rdi, -24(%rbp)
	.loc 1 94 1
	movl	$1, %edi
	call	mk_empty
	movq	%rax, -8(%rbp)
	movq	-8(%rbp), %rax
	leaq	8(%rax), %rcx
	movq	-24(%rbp), %rax
	movq	%rax, %rdx
	leaq	.LC5(%rip), %rsi
	movq	%rcx, %rdi
	movl	$0, %eax
	call	asprintf@PLT
	movq	-8(%rbp), %rax
	leave
	.cfi_def_cfa 7, 8
	ret
	.cfi_endproc
.LFE17:
	.size	mk_underover, .-mk_underover
	.section	.rodata
.LC7:
	.string	"<msqrt>%s</msqrt>"
	.text
	.globl	msqrt
	.type	msqrt, @function
msqrt:
.LFB18:
	.loc 1 108 1
	.cfi_startproc
	endbr64
	pushq	%rbp
	.cfi_def_cfa_offset 16
	.cfi_offset 6, -16
	movq	%rsp, %rbp
	.cfi_def_cfa_register 6
	subq	$32, %rsp
1:	call	*mcount@GOTPCREL(%rip)
	movq	%rdi, -24(%rbp)
	.loc 1 108 1
	movl	$7, %edi
	call	mk_empty
	movq	%rax, -8(%rbp)
	movq	-24(%rbp), %rax
	movq	%rax, %rdi
	call	inner
	movq	-24(%rbp), %rax
	movq	8(%rax), %rax
	movq	-8(%rbp), %rdx
	leaq	8(%rdx), %rcx
	movq	%rax, %rdx
	leaq	.LC7(%rip), %rsi
	movq	%rcx, %rdi
	movl	$0, %eax
	call	asprintf@PLT
	movq	-24(%rbp), %rax
	movq	%rax, %rdi
	call	free_node
	movq	-8(%rbp), %rax
	leave
	.cfi_def_cfa 7, 8
	ret
	.cfi_endproc
.LFE18:
	.size	msqrt, .-msqrt
	.section	.rodata
.LC8:
	.string	"<mtext>%s</mtext>"
	.text
	.globl	mtext
	.type	mtext, @function
mtext:
.LFB19:
	.loc 1 109 1
	.cfi_startproc
	endbr64
	pushq	%rbp
	.cfi_def_cfa_offset 16
	.cfi_offset 6, -16
	movq	%rsp, %rbp
	.cfi_def_cfa_register 6
	subq	$32, %rsp
1:	call	*mcount@GOTPCREL(%rip)
	movq	%rdi, -24(%rbp)
	.loc 1 109 1
	movl	$7, %edi
	call	mk_empty
	movq	%rax, -8(%rbp)
	movq	-24(%rbp), %rax
	movq	%rax, %rdi
	call	inner
	movq	-24(%rbp), %rax
	movq	8(%rax), %rax
	movq	-8(%rbp), %rdx
	leaq	8(%rdx), %rcx
	movq	%rax, %rdx
	leaq	.LC8(%rip), %rsi
	movq	%rcx, %rdi
	movl	$0, %eax
	call	asprintf@PLT
	movq	-24(%rbp), %rax
	movq	%rax, %rdi
	call	free_node
	movq	-8(%rbp), %rax
	leave
	.cfi_def_cfa 7, 8
	ret
	.cfi_endproc
.LFE19:
	.size	mtext, .-mtext
	.section	.rodata
.LC9:
	.string	"<munder>%s<mo>_</mo></munder>"
	.text
	.globl	ul
	.type	ul, @function
ul:
.LFB20:
	.loc 1 110 1
	.cfi_startproc
	endbr64
	pushq	%rbp
	.cfi_def_cfa_offset 16
	.cfi_offset 6, -16
	movq	%rsp, %rbp
	.cfi_def_cfa_register 6
	subq	$32, %rsp
1:	call	*mcount@GOTPCREL(%rip)
	movq	%rdi, -24(%rbp)
	.loc 1 110 1
	movl	$7, %edi
	call	mk_empty
	movq	%rax, -8(%rbp)
	movq	-24(%rbp), %rax
	movq	%rax, %rdi
	call	inner
	movq	-24(%rbp), %rax
	movq	8(%rax), %rax
	movq	-8(%rbp), %rdx
	leaq	8(%rdx), %rcx
	movq	%rax, %rdx
	leaq	.LC9(%rip), %rsi
	movq	%rcx, %rdi
	movl	$0, %eax
	call	asprintf@PLT
	movq	-24(%rbp), %rax
	movq	%rax, %rdi
	call	free_node
	movq	-8(%rbp), %rax
	leave
	.cfi_def_cfa 7, 8
	ret
	.cfi_endproc
.LFE20:
	.size	ul, .-ul
	.section	.rodata
	.align 8
.LC10:
	.string	"<menclose notation=\"updiagonalstrike\">%s</menclose>"
	.text
	.globl	cancel
	.type	cancel, @function
cancel:
.LFB21:
	.loc 1 111 1
	.cfi_startproc
	endbr64
	pushq	%rbp
	.cfi_def_cfa_offset 16
	.cfi_offset 6, -16
	movq	%rsp, %rbp
	.cfi_def_cfa_register 6
	subq	$32, %rsp
1:	call	*mcount@GOTPCREL(%rip)
	movq	%rdi, -24(%rbp)
	.loc 1 111 1
	movl	$7, %edi
	call	mk_empty
	movq	%rax, -8(%rbp)
	movq	-24(%rbp), %rax
	movq	%rax, %rdi
	call	inner
	movq	-24(%rbp), %rax
	movq	8(%rax), %rax
	movq	-8(%rbp), %rdx
	leaq	8(%rdx), %rcx
	movq	%rax, %rdx
	leaq	.LC10(%rip), %rsi
	movq	%rcx, %rdi
	movl	$0, %eax
	call	asprintf@PLT
	movq	-24(%rbp), %rax
	movq	%rax, %rdi
	call	free_node
	movq	-8(%rbp), %rax
	leave
	.cfi_def_cfa 7, 8
	ret
	.cfi_endproc
.LFE21:
	.size	cancel, .-cancel
	.section	.rodata
.LC11:
	.string	"<mover>%s<mo>%s</mo></mover>"
	.text
	.globl	accent
	.type	accent, @function
accent:
.LFB22:
	.loc 1 114 1
	.cfi_startproc
	endbr64
	pushq	%rbp
	.cfi_def_cfa_offset 16
	.cfi_offset 6, -16
	movq	%rsp, %rbp
	.cfi_def_cfa_register 6
	subq	$32, %rsp
1:	call	*mcount@GOTPCREL(%rip)
	movq	%rdi, -24(%rbp)
	movq	%rsi, -32(%rbp)
	.loc 1 115 19
	movl	$7, %edi
	call	mk_empty
	movq	%rax, -8(%rbp)
	.loc 1 116 2
	movq	-24(%rbp), %rax
	movq	%rax, %rdi
	call	inner
	.loc 1 117 2
	movq	-24(%rbp), %rax
	movq	8(%rax), %rax
	movq	-8(%rbp), %rdx
	leaq	8(%rdx), %rdi
	movq	-32(%rbp), %rdx
	movq	%rdx, %rcx
	movq	%rax, %rdx
	leaq	.LC11(%rip), %rsi
	movl	$0, %eax
	call	asprintf@PLT
	.loc 1 118 2
	movq	-24(%rbp), %rax
	movq	%rax, %rdi
	call	free_node
	.loc 1 119 9
	movq	-8(%rbp), %rax
	.loc 1 120 1
	leave
	.cfi_def_cfa 7, 8
	ret
	.cfi_endproc
.LFE22:
	.size	accent, .-accent
	.section	.rodata
	.align 8
.LC12:
	.string	"<mstyle mathvariant=\"%s\">%s</mstyle>"
	.text
	.globl	font
	.type	font, @function
font:
.LFB23:
	.loc 1 123 1
	.cfi_startproc
	endbr64
	pushq	%rbp
	.cfi_def_cfa_offset 16
	.cfi_offset 6, -16
	movq	%rsp, %rbp
	.cfi_def_cfa_register 6
	subq	$32, %rsp
1:	call	*mcount@GOTPCREL(%rip)
	movq	%rdi, -24(%rbp)
	movq	%rsi, -32(%rbp)
	.loc 1 124 19
	movl	$7, %edi
	call	mk_empty
	movq	%rax, -8(%rbp)
	.loc 1 125 2
	movq	-24(%rbp), %rax
	movq	%rax, %rdi
	call	inner
	.loc 1 126 2
	movq	-24(%rbp), %rax
	movq	8(%rax), %rdx
	movq	-8(%rbp), %rax
	leaq	8(%rax), %rdi
	movq	-32(%rbp), %rax
	movq	%rdx, %rcx
	movq	%rax, %rdx
	leaq	.LC12(%rip), %rsi
	movl	$0, %eax
	call	asprintf@PLT
	.loc 1 127 2
	movq	-24(%rbp), %rax
	movq	%rax, %rdi
	call	free_node
	.loc 1 128 9
	movq	-8(%rbp), %rax
	.loc 1 129 1
	leave
	.cfi_def_cfa 7, 8
	ret
	.cfi_endproc
.LFE23:
	.size	font, .-font
	.section	.rodata
.LC13:
	.string	"<mfrac>%s%s</mfrac>"
	.text
	.globl	mk_frac
	.type	mk_frac, @function
mk_frac:
.LFB24:
	.loc 1 145 1
	.cfi_startproc
	endbr64
	pushq	%rbp
	.cfi_def_cfa_offset 16
	.cfi_offset 6, -16
	movq	%rsp, %rbp
	.cfi_def_cfa_register 6
	subq	$32, %rsp
1:	call	*mcount@GOTPCREL(%rip)
	movq	%rdi, -24(%rbp)
	movq	%rsi, -32(%rbp)
	.loc 1 145 1
	movl	$7, %edi
	call	mk_empty
	movq	%rax, -8(%rbp)
	movq	-24(%rbp), %rax
	movq	%rax, %rdi
	call	inner
	movq	-32(%rbp), %rax
	movq	%rax, %rdi
	call	inner
	movq	-32(%rbp), %rax
	movq	8(%rax), %rdx
	movq	-24(%rbp), %rax
	movq	8(%rax), %rax
	movq	-8(%rbp), %rcx
	leaq	8(%rcx), %rdi
	movq	%rdx, %rcx
	movq	%rax, %rdx
	leaq	.LC13(%rip), %rsi
	movl	$0, %eax
	call	asprintf@PLT
	movq	-24(%rbp), %rax
	movq	%rax, %rdi
	call	free_node
	movq	-32(%rbp), %rax
	movq	%rax, %rdi
	call	free_node
	movq	-8(%rbp), %rax
	leave
	.cfi_def_cfa 7, 8
	ret
	.cfi_endproc
.LFE24:
	.size	mk_frac, .-mk_frac
	.section	.rodata
.LC14:
	.string	"<mroot>%s%s</mroot>"
	.text
	.globl	mk_root
	.type	mk_root, @function
mk_root:
.LFB25:
	.loc 1 146 1
	.cfi_startproc
	endbr64
	pushq	%rbp
	.cfi_def_cfa_offset 16
	.cfi_offset 6, -16
	movq	%rsp, %rbp
	.cfi_def_cfa_register 6
	subq	$32, %rsp
1:	call	*mcount@GOTPCREL(%rip)
	movq	%rdi, -24(%rbp)
	movq	%rsi, -32(%rbp)
	.loc 1 146 1
	movl	$7, %edi
	call	mk_empty
	movq	%rax, -8(%rbp)
	movq	-24(%rbp), %rax
	movq	%rax, %rdi
	call	inner
	movq	-32(%rbp), %rax
	movq	%rax, %rdi
	call	inner
	movq	-32(%rbp), %rax
	movq	8(%rax), %rdx
	movq	-24(%rbp), %rax
	movq	8(%rax), %rax
	movq	-8(%rbp), %rcx
	leaq	8(%rcx), %rdi
	movq	%rdx, %rcx
	movq	%rax, %rdx
	leaq	.LC14(%rip), %rsi
	movl	$0, %eax
	call	asprintf@PLT
	movq	-24(%rbp), %rax
	movq	%rax, %rdi
	call	free_node
	movq	-32(%rbp), %rax
	movq	%rax, %rdi
	call	free_node
	movq	-8(%rbp), %rax
	leave
	.cfi_def_cfa 7, 8
	ret
	.cfi_endproc
.LFE25:
	.size	mk_root, .-mk_root
	.section	.rodata
.LC15:
	.string	"<mover>%s%s</mover>"
	.text
	.globl	mk_stackrel
	.type	mk_stackrel, @function
mk_stackrel:
.LFB26:
	.loc 1 147 1
	.cfi_startproc
	endbr64
	pushq	%rbp
	.cfi_def_cfa_offset 16
	.cfi_offset 6, -16
	movq	%rsp, %rbp
	.cfi_def_cfa_register 6
	subq	$32, %rsp
1:	call	*mcount@GOTPCREL(%rip)
	movq	%rdi, -24(%rbp)
	movq	%rsi, -32(%rbp)
	.loc 1 147 1
	movl	$7, %edi
	call	mk_empty
	movq	%rax, -8(%rbp)
	movq	-24(%rbp), %rax
	movq	%rax, %rdi
	call	inner
	movq	-32(%rbp), %rax
	movq	%rax, %rdi
	call	inner
	movq	-32(%rbp), %rax
	movq	8(%rax), %rdx
	movq	-24(%rbp), %rax
	movq	8(%rax), %rax
	movq	-8(%rbp), %rcx
	leaq	8(%rcx), %rdi
	movq	%rdx, %rcx
	movq	%rax, %rdx
	leaq	.LC15(%rip), %rsi
	movl	$0, %eax
	call	asprintf@PLT
	movq	-24(%rbp), %rax
	movq	%rax, %rdi
	call	free_node
	movq	-32(%rbp), %rax
	movq	%rax, %rdi
	call	free_node
	movq	-8(%rbp), %rax
	leave
	.cfi_def_cfa 7, 8
	ret
	.cfi_endproc
.LFE26:
	.size	mk_stackrel, .-mk_stackrel
	.section	.rodata
	.align 8
.LC16:
	.string	"<munder><munder>%s<mo>\342\217\237</mo></munder>%s</munder>"
	.text
	.globl	mk_ubrace
	.type	mk_ubrace, @function
mk_ubrace:
.LFB27:
	.loc 1 148 1
	.cfi_startproc
	endbr64
	pushq	%rbp
	.cfi_def_cfa_offset 16
	.cfi_offset 6, -16
	movq	%rsp, %rbp
	.cfi_def_cfa_register 6
	subq	$32, %rsp
1:	call	*mcount@GOTPCREL(%rip)
	movq	%rdi, -24(%rbp)
	movq	%rsi, -32(%rbp)
	.loc 1 148 1
	movl	$7, %edi
	call	mk_empty
	movq	%rax, -8(%rbp)
	movq	-24(%rbp), %rax
	movq	%rax, %rdi
	call	inner
	movq	-32(%rbp), %rax
	movq	%rax, %rdi
	call	inner
	movq	-32(%rbp), %rax
	movq	8(%rax), %rdx
	movq	-24(%rbp), %rax
	movq	8(%rax), %rax
	movq	-8(%rbp), %rcx
	leaq	8(%rcx), %rdi
	movq	%rdx, %rcx
	movq	%rax, %rdx
	leaq	.LC16(%rip), %rsi
	movl	$0, %eax
	call	asprintf@PLT
	movq	-24(%rbp), %rax
	movq	%rax, %rdi
	call	free_node
	movq	-32(%rbp), %rax
	movq	%rax, %rdi
	call	free_node
	movq	-8(%rbp), %rax
	leave
	.cfi_def_cfa 7, 8
	ret
	.cfi_endproc
.LFE27:
	.size	mk_ubrace, .-mk_ubrace
	.section	.rodata
	.align 8
.LC17:
	.string	"<mover><mover>%s<mo>\342\217\236</mo></mover>%s</mover>"
	.text
	.globl	mk_obrace
	.type	mk_obrace, @function
mk_obrace:
.LFB28:
	.loc 1 149 1
	.cfi_startproc
	endbr64
	pushq	%rbp
	.cfi_def_cfa_offset 16
	.cfi_offset 6, -16
	movq	%rsp, %rbp
	.cfi_def_cfa_register 6
	subq	$32, %rsp
1:	call	*mcount@GOTPCREL(%rip)
	movq	%rdi, -24(%rbp)
	movq	%rsi, -32(%rbp)
	.loc 1 149 1
	movl	$7, %edi
	call	mk_empty
	movq	%rax, -8(%rbp)
	movq	-24(%rbp), %rax
	movq	%rax, %rdi
	call	inner
	movq	-32(%rbp), %rax
	movq	%rax, %rdi
	call	inner
	movq	-32(%rbp), %rax
	movq	8(%rax), %rdx
	movq	-24(%rbp), %rax
	movq	8(%rax), %rax
	movq	-8(%rbp), %rcx
	leaq	8(%rcx), %rdi
	movq	%rdx, %rcx
	movq	%rax, %rdx
	leaq	.LC17(%rip), %rsi
	movl	$0, %eax
	call	asprintf@PLT
	movq	-24(%rbp), %rax
	movq	%rax, %rdi
	call	free_node
	movq	-32(%rbp), %rax
	movq	%rax, %rdi
	call	free_node
	movq	-8(%rbp), %rax
	leave
	.cfi_def_cfa 7, 8
	ret
	.cfi_endproc
.LFE28:
	.size	mk_obrace, .-mk_obrace
	.section	.rodata
	.align 8
.LC18:
	.string	"<mstyle mathcolor=\"%s\">%s</mstyle>"
	.text
	.globl	mk_color
	.type	mk_color, @function
mk_color:
.LFB29:
	.loc 1 164 1
	.cfi_startproc
	endbr64
	pushq	%rbp
	.cfi_def_cfa_offset 16
	.cfi_offset 6, -16
	movq	%rsp, %rbp
	.cfi_def_cfa_register 6
	subq	$32, %rsp
1:	call	*mcount@GOTPCREL(%rip)
	movq	%rdi, -24(%rbp)
	movq	%rsi, -32(%rbp)
	.loc 1 164 1
	movl	$7, %edi
	call	mk_empty
	movq	%rax, -8(%rbp)
	movq	-32(%rbp), %rax
	movq	%rax, %rdi
	call	inner
	movq	-32(%rbp), %rax
	movq	8(%rax), %rdx
	movq	-24(%rbp), %rax
	movq	8(%rax), %rax
	movq	-8(%rbp), %rcx
	leaq	8(%rcx), %rdi
	movq	%rdx, %rcx
	movq	%rax, %rdx
	leaq	.LC18(%rip), %rsi
	movl	$0, %eax
	call	asprintf@PLT
	movq	-24(%rbp), %rax
	movq	%rax, %rdi
	call	free_node
	movq	-32(%rbp), %rax
	movq	%rax, %rdi
	call	free_node
	movq	-8(%rbp), %rax
	leave
	.cfi_def_cfa 7, 8
	ret
	.cfi_endproc
.LFE29:
	.size	mk_color, .-mk_color
	.section	.rodata
.LC19:
	.string	"<msup>%s%s</msup>"
	.text
	.globl	mk_sup
	.type	mk_sup, @function
mk_sup:
.LFB30:
	.loc 1 165 1
	.cfi_startproc
	endbr64
	pushq	%rbp
	.cfi_def_cfa_offset 16
	.cfi_offset 6, -16
	movq	%rsp, %rbp
	.cfi_def_cfa_register 6
	subq	$32, %rsp
1:	call	*mcount@GOTPCREL(%rip)
	movq	%rdi, -24(%rbp)
	movq	%rsi, -32(%rbp)
	.loc 1 165 1
	movl	$7, %edi
	call	mk_empty
	movq	%rax, -8(%rbp)
	movq	-32(%rbp), %rax
	movq	%rax, %rdi
	call	inner
	movq	-32(%rbp), %rax
	movq	8(%rax), %rdx
	movq	-24(%rbp), %rax
	movq	8(%rax), %rax
	movq	-8(%rbp), %rcx
	leaq	8(%rcx), %rdi
	movq	%rdx, %rcx
	movq	%rax, %rdx
	leaq	.LC19(%rip), %rsi
	movl	$0, %eax
	call	asprintf@PLT
	movq	-24(%rbp), %rax
	movq	%rax, %rdi
	call	free_node
	movq	-32(%rbp), %rax
	movq	%rax, %rdi
	call	free_node
	movq	-8(%rbp), %rax
	leave
	.cfi_def_cfa 7, 8
	ret
	.cfi_endproc
.LFE30:
	.size	mk_sup, .-mk_sup
	.section	.rodata
.LC20:
	.string	"<munder>%s%s</munder>"
.LC21:
	.string	"<msub>%s%s</msub>"
	.text
	.globl	mk_sub
	.type	mk_sub, @function
mk_sub:
.LFB31:
	.loc 1 168 1
	.cfi_startproc
	endbr64
	pushq	%rbp
	.cfi_def_cfa_offset 16
	.cfi_offset 6, -16
	movq	%rsp, %rbp
	.cfi_def_cfa_register 6
	subq	$32, %rsp
1:	call	*mcount@GOTPCREL(%rip)
	movq	%rdi, -24(%rbp)
	movq	%rsi, -32(%rbp)
	.loc 1 169 19
	movl	$7, %edi
	call	mk_empty
	movq	%rax, -8(%rbp)
	.loc 1 170 2
	movq	-32(%rbp), %rax
	movq	%rax, %rdi
	call	inner
	.loc 1 171 8
	movq	-24(%rbp), %rax
	movl	(%rax), %eax
	.loc 1 171 5
	cmpl	$1, %eax
	jne	.L57
.LBB2:
	.loc 1 172 3
	movq	-32(%rbp), %rax
	movq	8(%rax), %rdx
	movq	-24(%rbp), %rax
	movq	8(%rax), %rax
	movq	-8(%rbp), %rcx
	leaq	8(%rcx), %rdi
	movq	%rdx, %rcx
	movq	%rax, %rdx
	leaq	.LC20(%rip), %rsi
	movl	$0, %eax
	call	asprintf@PLT
.LBE2:
	jmp	.L58
.L57:
.LBB3:
	.loc 1 175 3
	movq	-32(%rbp), %rax
	movq	8(%rax), %rdx
	movq	-24(%rbp), %rax
	movq	8(%rax), %rax
	movq	-8(%rbp), %rcx
	leaq	8(%rcx), %rdi
	movq	%rdx, %rcx
	movq	%rax, %rdx
	leaq	.LC21(%rip), %rsi
	movl	$0, %eax
	call	asprintf@PLT
.L58:
.LBE3:
	.loc 1 177 2
	movq	-24(%rbp), %rax
	movq	%rax, %rdi
	call	free_node
	.loc 1 178 2
	movq	-32(%rbp), %rax
	movq	%rax, %rdi
	call	free_node
	.loc 1 179 9
	movq	-8(%rbp), %rax
	.loc 1 180 1
	leave
	.cfi_def_cfa 7, 8
	ret
	.cfi_endproc
.LFE31:
	.size	mk_sub, .-mk_sub
	.section	.rodata
	.align 8
.LC22:
	.string	"<munderover>%s%s%s</munderover>"
.LC23:
	.string	"<msubsup>%s%s%s</msubsup>"
	.text
	.globl	mk_ter
	.type	mk_ter, @function
mk_ter:
.LFB32:
	.loc 1 185 1
	.cfi_startproc
	endbr64
	pushq	%rbp
	.cfi_def_cfa_offset 16
	.cfi_offset 6, -16
	movq	%rsp, %rbp
	.cfi_def_cfa_register 6
	subq	$48, %rsp
1:	call	*mcount@GOTPCREL(%rip)
	movq	%rdi, -24(%rbp)
	movq	%rsi, -32(%rbp)
	movq	%rdx, -40(%rbp)
	.loc 1 186 19
	movl	$7, %edi
	call	mk_empty
	movq	%rax, -8(%rbp)
	.loc 1 187 2
	movq	-24(%rbp), %rax
	movq	%rax, %rdi
	call	inner
	.loc 1 188 2
	movq	-32(%rbp), %rax
	movq	%rax, %rdi
	call	inner
	.loc 1 189 2
	movq	-40(%rbp), %rax
	movq	%rax, %rdi
	call	inner
	.loc 1 190 8
	movq	-24(%rbp), %rax
	movl	(%rax), %eax
	.loc 1 190 5
	cmpl	$1, %eax
	jne	.L61
.LBB4:
	.loc 1 191 3
	movq	-40(%rbp), %rax
	movq	8(%rax), %rsi
	movq	-32(%rbp), %rax
	movq	8(%rax), %rdx
	movq	-24(%rbp), %rax
	movq	8(%rax), %rax
	movq	-8(%rbp), %rcx
	leaq	8(%rcx), %rdi
	movq	%rsi, %r8
	movq	%rdx, %rcx
	movq	%rax, %rdx
	leaq	.LC22(%rip), %rsi
	movl	$0, %eax
	call	asprintf@PLT
.LBE4:
	jmp	.L62
.L61:
.LBB5:
	.loc 1 194 3
	movq	-40(%rbp), %rax
	movq	8(%rax), %rsi
	movq	-32(%rbp), %rax
	movq	8(%rax), %rdx
	movq	-24(%rbp), %rax
	movq	8(%rax), %rax
	movq	-8(%rbp), %rcx
	leaq	8(%rcx), %rdi
	movq	%rsi, %r8
	movq	%rdx, %rcx
	movq	%rax, %rdx
	leaq	.LC23(%rip), %rsi
	movl	$0, %eax
	call	asprintf@PLT
.L62:
.LBE5:
	.loc 1 196 2
	movq	-24(%rbp), %rax
	movq	%rax, %rdi
	call	free_node
	.loc 1 197 2
	movq	-32(%rbp), %rax
	movq	%rax, %rdi
	call	free_node
	.loc 1 198 2
	movq	-40(%rbp), %rax
	movq	%rax, %rdi
	call	free_node
	.loc 1 199 9
	movq	-8(%rbp), %rax
	.loc 1 200 1
	leave
	.cfi_def_cfa 7, 8
	ret
	.cfi_endproc
.LFE32:
	.size	mk_ter, .-mk_ter
	.section	.rodata
	.align 8
.LC24:
	.string	"<mrow><mo>%s</mo><mtable>%s</mtable><mo>%s</mo></mrow>"
	.text
	.globl	matrix
	.type	matrix, @function
matrix:
.LFB33:
	.loc 1 205 1
	.cfi_startproc
	endbr64
	pushq	%rbp
	.cfi_def_cfa_offset 16
	.cfi_offset 6, -16
	movq	%rsp, %rbp
	.cfi_def_cfa_register 6
	subq	$48, %rsp
1:	call	*mcount@GOTPCREL(%rip)
	movq	%rdi, -24(%rbp)
	movq	%rsi, -32(%rbp)
	movq	%rdx, -40(%rbp)
	.loc 1 206 19
	movl	$7, %edi
	call	mk_empty
	movq	%rax, -8(%rbp)
	.loc 1 207 2
	movq	-40(%rbp), %rax
	movq	8(%rax), %rsi
	movq	-32(%rbp), %rax
	movq	8(%rax), %rdx
	movq	-24(%rbp), %rax
	movq	8(%rax), %rax
	movq	-8(%rbp), %rcx
	leaq	8(%rcx), %rdi
	movq	%rsi, %r8
	movq	%rdx, %rcx
	movq	%rax, %rdx
	leaq	.LC24(%rip), %rsi
	movl	$0, %eax
	call	asprintf@PLT
	.loc 1 208 2
	movq	-24(%rbp), %rax
	movq	%rax, %rdi
	call	free_node
	.loc 1 209 2
	movq	-32(%rbp), %rax
	movq	%rax, %rdi
	call	free_node
	.loc 1 210 2
	movq	-40(%rbp), %rax
	movq	%rax, %rdi
	call	free_node
	.loc 1 211 9
	movq	-8(%rbp), %rax
	.loc 1 212 1
	leave
	.cfi_def_cfa 7, 8
	ret
	.cfi_endproc
.LFE33:
	.size	matrix, .-matrix
	.section	.rodata
.LC25:
	.string	"<mtr>%s</mtr>"
	.text
	.globl	row
	.type	row, @function
row:
.LFB34:
	.loc 1 215 1
	.cfi_startproc
	endbr64
	pushq	%rbp
	.cfi_def_cfa_offset 16
	.cfi_offset 6, -16
	movq	%rsp, %rbp
	.cfi_def_cfa_register 6
	subq	$32, %rsp
1:	call	*mcount@GOTPCREL(%rip)
	movq	%rdi, -24(%rbp)
	.loc 1 216 19
	movl	$7, %edi
	call	mk_empty
	movq	%rax, -8(%rbp)
	.loc 1 217 2
	movq	-24(%rbp), %rax
	movq	8(%rax), %rax
	movq	-8(%rbp), %rdx
	leaq	8(%rdx), %rcx
	movq	%rax, %rdx
	leaq	.LC25(%rip), %rsi
	movq	%rcx, %rdi
	movl	$0, %eax
	call	asprintf@PLT
	.loc 1 218 2
	movq	-24(%rbp), %rax
	movq	%rax, %rdi
	call	free_node
	.loc 1 219 9
	movq	-8(%rbp), %rax
	.loc 1 220 1
	leave
	.cfi_def_cfa 7, 8
	ret
	.cfi_endproc
.LFE34:
	.size	row, .-row
	.section	.rodata
.LC26:
	.string	"<mtd>%s</mtd>"
	.text
	.globl	cell
	.type	cell, @function
cell:
.LFB35:
	.loc 1 223 1
	.cfi_startproc
	endbr64
	pushq	%rbp
	.cfi_def_cfa_offset 16
	.cfi_offset 6, -16
	movq	%rsp, %rbp
	.cfi_def_cfa_register 6
	subq	$32, %rsp
1:	call	*mcount@GOTPCREL(%rip)
	movq	%rdi, -24(%rbp)
	.loc 1 224 19
	movl	$7, %edi
	call	mk_empty
	movq	%rax, -8(%rbp)
	.loc 1 225 2
	movq	-24(%rbp), %rax
	movq	8(%rax), %rax
	movq	-8(%rbp), %rdx
	leaq	8(%rdx), %rcx
	movq	%rax, %rdx
	leaq	.LC26(%rip), %rsi
	movq	%rcx, %rdi
	movl	$0, %eax
	call	asprintf@PLT
	.loc 1 226 2
	movq	-24(%rbp), %rax
	movq	%rax, %rdi
	call	free_node
	.loc 1 227 9
	movq	-8(%rbp), %rax
	.loc 1 228 1
	leave
	.cfi_def_cfa 7, 8
	ret
	.cfi_endproc
.LFE35:
	.size	cell, .-cell
.Letext0:
	.file 2 "/usr/lib/gcc/x86_64-linux-gnu/9/include/stddef.h"
	.file 3 "/usr/include/x86_64-linux-gnu/bits/types.h"
	.file 4 "/usr/include/x86_64-linux-gnu/bits/types/struct_FILE.h"
	.file 5 "/usr/include/x86_64-linux-gnu/bits/types/FILE.h"
	.file 6 "/usr/include/stdio.h"
	.file 7 "/usr/include/x86_64-linux-gnu/bits/sys_errlist.h"
	.file 8 "util.h"
	.section	.note.GNU-stack,"",@progbits
	.section	.note.gnu.property,"a"
	.align 8
	.long	 1f - 0f
	.long	 4f - 1f
	.long	 5
0:
	.string	 "GNU"
1:
	.align 8
	.long	 0xc0000002
	.long	 3f - 2f
2:
	.long	 0x3
3:
	.align 8
4:
